(dp1
S'Hepatic necrosis'
p2
c__builtin__
set
p3
((lp4
S'213'
p5
aS'1559'
p6
aS'4535'
p7
aS'7153'
p8
aS'2890'
p9
aS'2741'
p10
aS'27032'
p11
aS'3736'
p12
aS'513'
p13
aS'1571'
p14
aS'9356'
p15
atRp16
sS'Nuchal rigidity'
p17
g3
((lp18
S'1814'
p19
aS'1551'
p20
aS'1557'
p21
ag6
aS'1565'
p22
aS'5243'
p23
aS'3358'
p24
aS'495'
p25
aS'1577'
p26
aS'1576'
p27
aS'6329'
p28
atRp29
sS'Electric shock'
p30
g3
((lp31
S'1555'
p32
aS'6532'
p33
ag22
aS'6530'
p34
aS'6531'
p35
atRp36
sS'Porphyria non-acute'
p37
g3
((lp38
g6
aS'3758'
p39
aS'6833'
p40
atRp41
sS'Cardiac failure'
p42
g3
((lp43
g20
aS'5159'
p44
aS'153'
p45
aS'3815'
p46
ag8
ag23
aS'9429'
p47
aS'6331'
p48
atRp49
sS'Folliculitis'
p50
g3
((lp51
g47
aS'2908'
p52
ag27
aS'866'
p53
atRp54
sS'Musculoskeletal stiffness'
p55
g3
((lp56
g19
aS'25'
p57
aS'1544'
p58
ag20
aS'1812'
p59
aS'1815'
p60
ag6
ag22
aS'5732'
p61
ag21
ag23
ag24
aS'3356'
p62
ag33
aS'3350'
p63
aS'3352'
p64
aS'3351'
p65
ag26
ag27
ag28
atRp66
sS'Recall phenomenon'
p67
g3
((lp68
S'10928'
p69
aS'4363'
p70
ag8
aS'7155'
p71
aS'5447'
p72
ag23
aS'978'
p73
ag47
aS'1244'
p74
aS'368'
p75
aS'6240'
p76
aS'89845'
p77
atRp78
sS'Joint dislocation'
p79
g3
((lp80
S'1128'
p81
aS'3269'
p82
atRp83
sS'Dermatitis infected'
p84
g3
((lp85
g52
atRp86
sS'Atelectasis'
p87
g3
((lp88
S'54578'
p89
aS'3614'
p90
atRp91
sS'Intermittent claudication'
p92
g3
((lp93
g45
aS'154'
p94
atRp95
sS'Calcinosis'
p96
g3
((lp97
S'1591'
p98
aS'7421'
p99
atRp100
sS'Jaundice'
p101
g3
((lp102
S'152'
p103
ag5
ag70
ag8
aS'3757'
p104
aS'59340'
p105
aS'3274'
p106
aS'5743'
p107
ag33
ag12
ag25
aS'3363'
p108
aS'10257'
p109
ag19
ag60
ag58
ag59
aS'1813'
p110
aS'7364'
p111
aS'3362'
p112
aS'1816'
p113
ag47
ag22
aS'146'
p114
aS'147'
p115
ag15
aS'5004'
p116
aS'1133'
p117
aS'1132'
p118
aS'54658'
p119
aS'148'
p120
aS'3354'
p121
ag62
aS'240'
p122
ag82
aS'3359'
p123
ag24
ag20
ag32
ag21
ag6
aS'1558'
p124
aS'5742'
p125
ag23
ag74
aS'8647'
p126
ag26
ag27
ag63
atRp127
sS'Middle insomnia'
p128
g3
((lp129
g33
ag34
ag35
atRp130
sS'Hyperbilirubinaemia'
p131
g3
((lp132
g20
aS'9154'
p133
aS'1633'
p134
ag90
ag6
ag23
ag47
ag27
atRp135
sS'Influenza like illness'
p136
g3
((lp137
S'2224'
p138
ag27
atRp139
sS'Ear infection'
p140
g3
((lp141
g27
atRp142
sS'Cogwheel rigidity'
p143
g3
((lp144
g81
aS'1129'
p145
ag103
aS'150'
p146
ag19
ag60
ag113
ag59
ag110
ag112
ag108
ag22
ag115
aS'151'
p147
ag117
ag118
aS'1131'
p148
ag120
ag121
ag62
ag63
ag64
ag82
ag123
ag24
ag20
aS'801'
p149
atRp150
sS'Strangury'
p151
g3
((lp152
g148
atRp153
sS'Myelitis transverse'
p154
g3
((lp155
S'5468'
p156
ag122
aS'3551'
p157
aS'1147'
p158
atRp159
sS'Decreased appetite'
p160
g3
((lp161
g20
ag58
ag70
ag21
aS'762'
p162
ag8
aS'760'
p163
ag111
ag119
ag23
ag22
ag47
ag6
ag125
ag74
ag124
aS'759'
p164
ag26
ag27
atRp165
sS'Sleep apnoea syndrome'
p166
g3
((lp167
g19
ag60
ag103
ag59
ag110
ag120
ag27
ag62
ag63
ag64
ag82
ag24
atRp168
sS'Impulse-control disorder'
p169
g3
((lp170
g19
ag60
ag113
ag59
ag110
ag108
ag63
atRp171
sS'Gastrointestinal haemorrhage'
p172
g3
((lp173
g5
ag6
ag23
ag47
ag125
ag107
ag25
atRp174
sS'Libido decreased'
p175
g3
((lp176
g146
ag103
ag33
ag34
ag35
aS'1636'
p177
ag110
ag112
aS'4986'
p178
aS'367'
p179
ag22
ag114
ag115
ag116
ag117
aS'9254'
p180
ag120
ag62
ag63
ag82
ag24
ag20
ag21
ag6
ag23
aS'8912'
p181
ag26
ag27
atRp182
sS'Virilism'
p183
g3
((lp184
g179
aS'6462'
p185
atRp186
sS'Acidosis'
p187
g3
((lp188
S'6336'
p189
ag5
atRp190
sS'Infestation'
p191
g3
((lp192
g20
aS'28234'
p193
ag46
aS'8856'
p194
ag47
ag26
ag27
atRp195
sS'Hyperphagia'
p196
g3
((lp197
g81
ag19
ag147
ag103
ag59
ag60
ag22
ag110
ag120
ag24
ag121
ag115
ag62
ag63
ag64
ag82
ag27
atRp198
sS'Haemoptysis'
p199
g3
((lp200
g47
ag8
ag26
atRp201
sS'Pseudomembranous colitis'
p202
g3
((lp203
g15
aS'6584'
p204
aS'6565'
p205
aS'6564'
p206
ag8
aS'1595'
p207
atRp208
sS'Masked facies'
p209
g3
((lp210
g81
ag147
ag103
ag146
ag105
ag106
ag19
ag60
ag113
ag59
ag110
aS'3361'
p211
ag112
ag108
ag22
ag115
ag117
ag118
ag148
ag120
ag121
ag62
ag65
ag63
ag64
ag82
ag123
ag24
atRp212
sS'Dermatitis psoriasiform'
p213
g3
((lp214
g45
ag94
atRp215
sS'Hypotension'
p216
g3
((lp217
g19
ag60
ag103
ag59
ag112
ag26
ag148
ag110
ag23
ag22
ag105
aS'55879'
p218
ag63
aS'1562'
p219
ag123
ag24
ag62
ag48
atRp220
sS'Dyspepsia'
p221
g3
((lp222
g20
ag21
ag6
ag124
aS'54659'
p223
ag23
ag22
ag125
ag26
ag27
ag109
atRp224
sS'Retinal vascular occlusion'
p225
g3
((lp226
S'8654'
p227
atRp228
sS'Ulcerative keratitis'
p229
g3
((lp230
g52
ag53
atRp231
sS'Arthralgia'
p232
g3
((lp233
g20
ag58
aS'1545'
p234
ag177
ag21
ag6
ag124
aS'316'
p235
ag23
ag22
ag47
ag134
ag74
ag64
aS'10599'
p236
ag26
ag27
atRp237
sS'Cholangitis'
p238
g3
((lp239
S'54600'
p240
aS'54577'
p241
ag90
aS'3615'
p242
atRp243
sS'Peripheral nerve injury'
p244
g3
((lp245
g189
atRp246
sS'Hyperventilation'
p247
g3
((lp248
g218
ag64
atRp249
sS'Waist circumference increased'
p250
g3
((lp251
g19
ag60
ag147
ag103
ag59
ag64
ag24
atRp252
sS'Respiratory tract infection'
p253
g3
((lp254
g90
ag27
atRp255
sS'Angiopathy'
p256
g3
((lp257
g19
ag20
ag23
ag22
ag47
ag26
ag27
atRp258
sS'Drooling'
p259
g3
((lp260
g147
ag146
ag103
ag19
ag60
ag113
ag59
ag110
ag112
ag108
ag22
ag115
ag148
ag120
ag121
ag62
ag63
ag64
ag82
ag123
ag24
ag27
atRp261
sS'Chills'
p262
g3
((lp263
g20
ag5
ag8
ag119
ag23
ag47
ag64
ag26
ag27
atRp264
sS'Abnormal sensation in eye'
p265
g3
((lp266
S'5148'
p267
aS'5149'
p268
atRp269
sS'Diarrhoea'
p270
g3
((lp271
g20
ag21
ag6
ag124
ag23
ag22
ag47
ag125
ag74
ag26
ag27
atRp272
sS'Blood creatine phosphokinase increased'
p273
g3
((lp274
g57
ag21
ag6
ag22
ag47
ag121
aS'5465'
p275
aS'3156'
p276
aS'185'
p277
ag236
ag26
ag27
atRp278
sS'Tumour necrosis'
p279
g3
((lp280
S'1436'
p281
ag44
ag47
ag46
aS'5156'
p282
atRp283
sS'Gastrointestinal perforation'
p284
g3
((lp285
g281
aS'2322'
p286
aS'2321'
p287
aS'7363'
p288
aS'1956'
p289
ag116
ag6
aS'2324'
p290
aS'596'
p291
aS'3791'
p292
ag119
ag46
ag282
ag47
ag125
ag107
ag44
ag15
ag194
ag109
ag5
atRp293
sS'Piloerection'
p294
g3
((lp295
S'4988'
p296
aS'4985'
p297
ag178
atRp298
sS'Embolism'
p299
g3
((lp300
g20
aS'2328'
p301
aS'1588'
p302
ag234
aS'1543'
p303
ag46
aS'7298'
p304
ag185
ag52
ag69
ag23
ag47
ag74
ag44
aS'2100'
p305
aS'2099'
p306
ag27
atRp307
sS'Neuralgia'
p308
g3
((lp309
g20
ag32
ag21
ag291
ag6
ag22
ag26
ag27
atRp310
sS'Gynaecomastia'
p311
g3
((lp312
g81
ag145
ag103
ag115
aS'3751'
p313
aS'3752'
p314
ag104
ag46
ag60
ag106
aS'776'
p315
ag33
ag34
ag35
ag25
ag108
ag109
ag19
ag57
ag58
ag59
ag110
ag123
aS'6579'
p316
ag111
ag112
ag113
ag47
ag179
ag219
ag180
aS'775'
p317
aS'774'
p318
ag147
aS'6580'
p319
ag116
ag117
ag118
ag148
aS'779'
p320
ag119
ag120
aS'9376'
p321
ag121
ag62
ag114
ag276
ag64
ag82
ag146
aS'6583'
p322
ag24
aS'55867'
p323
ag20
ag105
ag44
ag32
aS'781'
p324
ag21
aS'783'
p325
ag6
ag124
aS'6609'
p326
ag23
ag22
ag181
ag185
ag74
ag149
ag26
ag27
ag63
atRp327
sS'Disturbance in attention'
p328
g3
((lp329
g146
ag103
ag33
ag34
ag35
ag19
ag60
ag58
ag59
ag110
ag108
ag178
ag22
ag115
ag113
ag120
ag62
ag65
ag63
ag64
ag82
aS'3786'
p330
ag24
ag20
ag32
ag21
aS'3785'
p331
ag26
ag27
atRp332
sS'Facial bones fracture'
p333
g3
((lp334
g34
ag35
atRp335
sS'Eye disorder'
p336
g3
((lp337
g20
ag58
ag6
ag23
ag22
ag47
ag26
ag27
atRp338
sS'Ascites'
p339
g3
((lp340
g44
ag47
ag8
atRp341
sS'Androgenetic alopecia'
p342
g3
((lp343
g179
atRp344
sS'Rash papular'
p345
g3
((lp346
g20
ag26
ag64
atRp347
sS'Growth retardation'
p348
g3
((lp349
g52
ag53
atRp350
sS'Catheter site erythema'
p351
g3
((lp352
S'1786'
p353
atRp354
sS'Ejection fraction decreased'
p355
g3
((lp356
g8
atRp357
sS'Dermatitis exfoliative'
p358
g3
((lp359
g20
ag58
ag5
ag6
ag240
ag125
ag107
ag26
ag323
ag15
atRp360
sS'Post procedural haemorrhage'
p361
g3
((lp362
g107
aS'2159'
p363
atRp364
sS'Dermatitis contact'
p365
g3
((lp366
g6
ag124
ag52
aS'6257'
p367
ag27
atRp368
sS'Haematocrit decreased'
p369
g3
((lp370
g19
ag60
ag59
atRp371
sS'Idiopathic pulmonary fibrosis'
p372
g3
((lp373
g122
ag157
ag158
atRp374
sS'Atypical mycobacterial infection'
p375
g3
((lp376
g90
ag242
ag240
ag111
ag119
ag241
ag89
atRp377
sS'Menstruation irregular'
p378
g3
((lp379
g52
ag306
ag19
ag60
ag234
ag59
ag110
ag316
aS'1586'
p380
ag179
ag22
ag120
ag62
ag63
ag82
ag20
ag124
ag185
aS'5241'
p381
ag23
ag26
ag27
atRp382
sS'Hepatocellular injury'
p383
g3
((lp384
g47
ag23
aS'1548'
p385
atRp386
sS'Nightmare'
p387
g3
((lp388
g81
ag145
ag45
ag103
ag94
ag115
aS'706'
p389
ag147
ag60
ag218
ag33
ag23
ag34
ag35
ag108
aS'2569'
p390
aS'2568'
p391
ag58
ag59
aS'200959'
p392
aS'2561'
p393
aS'2558'
p394
aS'2563'
p395
aS'2562'
p396
aS'2565'
p397
aS'2564'
p398
aS'2567'
p399
aS'2566'
p400
ag22
ag114
ag19
aS'1139'
p401
ag116
ag117
ag118
ag148
aS'1137'
p402
ag113
ag120
aS'3357'
p403
ag62
ag65
ag63
ag64
ag82
aS'2554'
p404
ag123
ag24
aS'2555'
p405
ag20
aS'1644'
p406
ag32
aS'2898'
p407
aS'2556'
p408
aS'2557'
p409
ag112
aS'2559'
p410
ag146
ag110
aS'2891'
p411
aS'2570'
p412
ag6
aS'2560'
p413
ag21
ag14
ag26
ag27
atRp414
sS'Troponin increased'
p415
g3
((lp416
g57
ag46
atRp417
sS'Conjunctival hyperaemia'
p418
g3
((lp419
S'5737'
p420
ag52
atRp421
sS'Parkinsonian gait'
p422
g3
((lp423
g19
ag60
ag113
ag103
ag59
ag112
ag146
ag110
ag147
ag22
ag120
ag108
ag121
ag115
ag62
ag63
ag64
ag82
ag123
ag24
atRp424
sS'Rash'
p425
g3
((lp426
g20
ag6
ag124
ag23
ag47
ag385
ag26
ag27
atRp427
sS'Macular oedema'
p428
g3
((lp429
g420
atRp430
sS'Nervous system disorder'
p431
g3
((lp432
g20
ag23
ag22
ag47
ag26
ag27
atRp433
sS'Joint swelling'
p434
g3
((lp435
g20
ag26
ag27
ag22
atRp436
sS'Cold sweat'
p437
g3
((lp438
g296
ag22
ag297
ag27
ag178
atRp439
sS'Stomatitis'
p440
g3
((lp441
g20
ag15
ag70
ag46
ag304
aS'2950'
p442
ag240
ag8
ag23
ag47
ag6
ag125
ag107
ag26
ag109
atRp443
sS'Vomiting'
p444
g3
((lp445
g20
ag58
ag5
ag21
ag6
ag124
ag23
ag22
ag47
ag74
ag70
ag26
ag27
ag15
atRp446
sS'Hallucination, visual'
p447
g3
((lp448
g81
atRp449
sS'Bradykinesia'
p450
g3
((lp451
g19
ag60
ag147
ag103
ag59
ag110
aS'873'
p452
ag112
ag22
ag82
ag62
ag63
ag64
ag120
ag20
ag26
ag24
atRp453
sS'Headache'
p454
g3
((lp455
g6
ag27
atRp456
sS'Hypohidrosis'
p457
g3
((lp458
g81
ag145
ag148
atRp459
sS'Ecchymosis'
p460
g3
((lp461
g20
ag57
ag58
ag32
ag5
ag21
ag6
ag223
aS'64805'
p462
ag111
ag23
ag47
aS'54575'
p463
ag125
ag107
ag26
atRp464
sS'Arthropathy'
p465
g3
((lp466
g20
ag6
ag23
ag22
ag47
ag121
ag64
ag25
ag26
ag27
atRp467
sS'Vasculitis'
p468
g3
((lp469
g5
ag21
ag6
ag223
ag316
ag111
ag385
ag321
ag47
ag23
ag125
ag107
ag74
ag124
ag15
ag236
ag26
ag109
ag122
atRp470
sS'Menorrhagia'
p471
g3
((lp472
g19
ag60
ag113
ag103
ag21
ag59
ag112
ag6
ag110
ag23
ag27
ag121
ag62
ag63
ag64
ag82
ag20
ag108
ag26
ag24
atRp473
sS'Haematuria'
p474
g3
((lp475
g15
ag21
ag6
ag462
ag8
ag321
ag125
ag107
ag109
atRp476
sS'Lower respiratory tract infection'
p477
g3
((lp478
g281
ag19
ag147
ag103
ag59
ag60
ag146
ag282
ag121
ag65
ag63
ag64
ag20
ag26
ag24
atRp479
sS'Arrhythmia'
p480
g3
((lp481
g58
ag32
ag8
ag23
ag12
ag26
ag22
atRp482
sS'Hyperuricaemia'
p483
g3
((lp484
g57
aS'7498'
p485
aS'6557'
p486
ag90
ag242
ag46
ag442
ag163
aS'2030'
p487
ag8
aS'6559'
p488
ag23
ag77
ag47
ag134
ag277
ag76
aS'5422'
p489
ag26
aS'64078'
p490
atRp491
sS'Anorectal discomfort'
p492
g3
((lp493
g20
ag8
ag27
ag75
ag22
atRp494
sS'Urethral disorder'
p495
g3
((lp496
g20
ag6
ag22
ag23
ag77
ag47
ag26
ag27
atRp497
sS'Blindness transient'
p498
g3
((lp499
g267
ag268
atRp500
sS'Abdominal discomfort'
p501
g3
((lp502
g20
ag60
ag119
ag65
ag64
ag26
atRp503
sS'Thinking abnormal'
p504
g3
((lp505
g389
ag218
ag412
ag390
ag391
ag58
ag392
ag393
ag413
ag395
ag396
ag397
ag398
ag399
ag400
ag404
ag32
ag405
ag408
ag394
ag26
ag23
aS'54576'
p506
ag21
ag89
ag27
atRp507
sS'Paraesthesia oral'
p508
g3
((lp509
g48
atRp510
sS'Urticaria vesiculosa'
p511
g3
((lp512
S'27'
p513
aS'1969'
p514
aS'6777'
p515
aS'3932'
p516
aS'7525'
p517
aS'6714'
p518
aS'2534'
p519
atRp520
sS'Lung infiltration'
p521
g3
((lp522
g76
ag490
atRp523
sS'Neuropathy peripheral'
p524
g3
((lp525
g20
ag58
ag134
ag32
ag21
ag46
ag6
ag124
ag119
ag23
ag77
ag47
ag74
ag487
ag26
ag27
ag22
atRp526
sS'Hypopituitarism'
p527
g3
((lp528
g40
atRp529
sS'Gastrooesophageal reflux disease'
p530
g3
((lp531
g81
ag20
ag46
ag22
ag138
ag227
ag23
ag27
ag47
ag297
ag64
ag26
ag148
atRp532
sS'Wound secretion'
p533
g3
((lp534
g363
atRp535
sS'Prinzmetal angina'
p536
g3
((lp537
S'3355'
p538
aS'4128'
p539
ag65
ag63
ag64
atRp540
sS'Disorientation'
p541
g3
((lp542
g81
ag145
ag45
aS'155'
p543
ag94
ag218
ag33
ag23
ag34
ag35
ag390
ag391
ag58
ag392
ag393
ag413
ag395
ag396
ag397
ag398
ag399
ag400
ag297
ag178
ag296
ag22
ag114
ag116
ag117
ag118
ag148
ag62
ag63
ag82
ag24
ag20
ag32
ag405
ag408
ag409
ag112
ag410
ag110
ag412
ag6
ag21
ag27
atRp544
sS'Hydronephrosis'
p545
g3
((lp546
S'2280'
p547
aS'2475'
p548
ag241
ag90
ag242
atRp549
sS'Hypertrophic cardiomyopathy'
p550
g3
((lp551
g52
aS'301'
p552
ag316
ag23
ag53
ag27
atRp553
sS'Rhinorrhoea'
p554
g3
((lp555
g296
ag297
ag178
atRp556
sS'Oesophageal ulcer'
p557
g3
((lp558
g47
ag27
ag23
atRp559
sS'Hyperammonaemia'
p560
g3
((lp561
S'2903'
p562
aS'2904'
p563
atRp564
sS'Peritonitis'
p565
g3
((lp566
g547
ag548
ag241
ag90
ag242
atRp567
sS'Goitre'
p568
g3
((lp569
g21
ag22
ag403
ag33
ag25
ag27
atRp570
sS'Retrograde amnesia'
p571
g3
((lp572
g390
ag391
ag404
ag405
ag408
ag392
ag393
ag410
ag395
ag396
ag397
ag398
ag412
ag400
ag394
ag399
ag413
ag14
ag409
atRp573
sS'Fungal infection'
p574
g3
((lp575
g47
ag8
atRp576
sS'Haemorrhagic disorder'
p577
g3
((lp578
g33
ag34
atRp579
sS'Vasospasm'
p580
g3
((lp581
g538
ag403
ag241
ag65
ag63
ag64
atRp582
sS'Neck injury'
p583
g3
((lp584
g33
ag34
atRp585
sS'Skin hyperpigmentation'
p586
g3
((lp587
g47
ag8
atRp588
sS'Myocardial infarction'
p589
g3
((lp590
g20
ag58
ag234
aS'28231'
p591
ag177
ag6
ag316
ag8
ag23
ag47
ag125
ag107
ag33
ag34
ag64
ag65
ag236
ag26
ag27
ag109
atRp592
sS'Urinary tract disorder'
p593
g3
((lp594
g20
ag6
ag22
ag23
ag77
ag47
ag26
ag27
atRp595
sS'Eye infection'
p596
g3
((lp597
g52
ag53
atRp598
sS'Ischaemia'
p599
g3
((lp600
g538
ag47
ag539
ag64
atRp601
sS'Febrile neutropenia'
p602
g3
((lp603
g44
ag70
ag282
aS'116447'
p604
aS'2944'
p605
ag57
ag485
ag234
ag71
aS'6647'
p606
ag8
ag73
ag47
aS'540'
p607
aS'8714'
p608
ag75
ag487
ag76
aS'81027'
p609
aS'1317'
p610
ag46
ag304
aS'1318'
p611
ag134
aS'4502'
p612
ag77
ag442
aS'2952'
p613
ag281
aS'1806'
p614
aS'7277'
p615
aS'1728'
p616
ag23
ag489
aS'7150'
p617
aS'471'
p618
ag74
aS'2356'
p619
aS'4489'
p620
aS'538'
p621
atRp622
sS'Gastroenteritis'
p623
g3
((lp624
g21
ag6
ag124
ag119
ag23
ag22
ag64
ag25
ag27
atRp625
sS'Hypothermia'
p626
g3
((lp627
g147
ag145
ag103
ag563
ag218
aS'116443'
p628
ag19
ag60
ag58
ag59
ag110
ag452
ag112
ag108
ag297
ag22
ag115
ag117
ag118
ag148
ag113
ag121
ag62
ag65
ag63
ag64
ag404
ag123
ag24
ag20
ag32
ag21
ag146
ag26
ag27
atRp629
sS'Bronchitis'
p630
g3
((lp631
g6
ag124
ag27
ag21
aS'1066'
p632
atRp633
sS'Immune-mediated necrotising myopathy'
p634
g3
((lp635
g111
ag316
ag223
ag119
ag74
ag236
ag276
atRp636
sS'Arteriospasm coronary'
p637
g3
((lp638
g538
ag539
ag65
ag64
atRp639
sS'Chronic myeloid leukaemia'
p640
g3
((lp641
g44
ag57
ag46
atRp642
sS'Aplasia pure red cell'
p643
g3
((lp644
g90
ag242
ag111
aS'132'
p645
ag241
ag89
atRp646
sS'Muscle twitching'
p647
g3
((lp648
g147
ag103
ag218
ag33
ag112
ag34
ag35
ag19
ag60
ag58
ag59
ag385
ag108
aS'6326'
p649
ag297
ag178
ag296
ag22
aS'54657'
p650
ag117
ag121
ag62
ag65
ag63
ag64
ag82
ag123
ag24
ag20
ag32
ag6
aS'18'
p651
ag23
ag26
ag27
atRp652
sS'Metrorrhagia'
p653
g3
((lp654
g20
ag58
ag21
ag6
ag306
ag381
aS'11309'
p655
ag26
ag27
atRp656
sS'Platelet aggregation abnormal'
p657
g3
((lp658
g513
ag514
ag515
ag516
ag517
ag518
ag519
atRp659
sS'Ototoxicity'
p660
g3
((lp661
g610
ag616
ag606
ag607
ag611
aS'1579'
p662
ag74
ag612
ag605
ag442
ag620
ag613
ag621
atRp663
sS'Orchitis noninfective'
p664
g3
((lp665
g33
atRp666
sS'Hypotonia'
p667
g3
((lp668
g19
ag60
ag113
ag103
ag20
ag59
ag146
ag22
ag389
ag64
ag147
ag235
ag27
ag649
ag62
ag297
ag48
ag178
aS'2550'
p669
ag24
atRp670
sS'Thrombocytopenia'
p671
g3
((lp672
g134
ag5
ag21
ag124
ag205
ag206
ag487
ag223
ag119
ag23
ag321
ag47
ag6
ag125
ag107
ag74
ag8
ag22
ag62
ag15
atRp673
sS'Amenorrhoea'
p674
g3
((lp675
g81
ag146
ag103
ag306
ag19
ag60
ag113
ag234
ag59
ag110
ag380
ag112
ag108
ag179
ag22
ag120
ag121
ag62
ag63
ag64
ag82
ag123
ag24
ag20
ag32
ag21
ag124
ag185
ag381
ag23
ag26
ag27
atRp676
sS'Nodular regenerative hyperplasia'
p677
g3
((lp678
S'3251'
p679
atRp680
sS'Peptic ulcer'
p681
g3
((lp682
g90
ag125
ag107
ag111
ag5
atRp683
sS'Systemic lupus erythematosus'
p684
g3
((lp685
g124
ag48
ag21
atRp686
sS'Colitis ischaemic'
p687
g3
((lp688
g538
ag45
ag65
ag94
atRp689
sS'Venoocclusive disease'
p690
g3
((lp691
S'2938'
p692
atRp693
sS'Device malfunction'
p694
g3
((lp695
S'10057'
p696
atRp697
sS'Injury associated with device'
p698
g3
((lp699
g189
atRp700
sS'Heat stroke'
p701
g3
((lp702
g81
atRp703
sS'Oral disorder'
p704
g3
((lp705
g138
atRp706
sS'Chorea'
p707
g3
((lp708
g306
atRp709
sS'Ischaemic cardiomyopathy'
p710
g3
((lp711
S'6401'
p712
aS'4718'
p713
aS'4879'
p714
aS'7412'
p715
aS'3091'
p716
aS'2697'
p717
atRp718
sS'Nasal discomfort'
p719
g3
((lp720
g52
ag53
atRp721
sS'Speech disorder'
p722
g3
((lp723
g20
ag21
ag23
ag121
ag65
ag48
ag64
ag27
atRp724
sS'Urinary hesitation'
p725
g3
((lp726
g81
ag145
ag117
ag118
ag148
ag33
ag34
ag297
ag22
atRp727
sS'Lymphopenia'
p728
g3
((lp729
g281
ag286
ag287
ag290
ag46
ag292
ag282
ag47
ag76
ag44
ag490
atRp730
sS'Polyuria'
p731
g3
((lp732
g20
ag324
ag21
ag6
ag124
ag288
ag22
ag121
ag64
ag26
ag27
atRp733
sS'Dissociation'
p734
g3
((lp735
g538
atRp736
sS'Pancreatic neoplasm'
p737
g3
((lp738
g19
ag60
ag147
ag103
ag59
ag64
ag24
atRp739
sS'Dermal cyst'
p740
g3
((lp741
g22
ag34
atRp742
sS'Colitis ulcerative'
p743
g3
((lp744
g25
atRp745
sS'Abdominal distension'
p746
g3
((lp747
g20
ag6
ag47
ag27
ag23
atRp748
sS'Intracranial pressure increased'
p749
g3
((lp750
g20
ag296
ag52
ag297
atRp751
sS'Secondary adrenocortical insufficiency'
p752
g3
((lp753
g52
ag53
atRp754
sS'Agranulocytosis'
p755
g3
((lp756
g40
ag5
ag162
ag8
ag240
ag125
ag107
ag58
ag59
ag110
ag111
ag112
ag163
ag6
ag15
ag304
ag62
ag82
ag24
ag177
ag21
ag205
ag206
ag23
ag22
ag463
atRp757
sS'Anterior spinal artery syndrome'
p758
g3
((lp759
g189
atRp760
sS'Chromatopsia'
p761
g3
((lp762
g267
ag268
atRp763
sS'Visual brightness'
p764
g3
((lp765
g227
ag267
ag268
atRp766
sS'Cheilitis'
p767
g3
((lp768
g20
ag367
ag47
ag26
ag90
atRp769
sS'Hyperacusis'
p770
g3
((lp771
g389
ag32
ag48
ag64
atRp772
sS'Epigastric discomfort'
p773
g3
((lp774
g486
ag21
ag162
ag163
ag488
ag164
atRp775
sS"Reye's syndrome"
p776
g3
((lp777
g107
ag157
atRp778
sS'Proctitis'
p779
g3
((lp780
g47
aS'5320'
p781
ag75
atRp782
sS'Cryptococcosis'
p783
g3
((lp784
g89
ag241
ag90
ag74
ag242
atRp785
sS'Hyperkeratosis'
p786
g3
((lp787
g60
ag287
ag290
ag46
ag292
ag22
ag286
ag24
atRp788
sS'Serotonin syndrome'
p789
g3
((lp790
g81
ag58
ag539
ag32
ag64
ag22
ag178
ag120
ag108
ag538
ag121
ag62
ag33
ag63
ag34
ag35
ag82
ag65
ag24
atRp791
sS'Phenylketonuria'
p792
g3
((lp793
g19
ag60
ag147
ag103
ag59
ag64
ag24
atRp794
sS'Diverticulitis'
p795
g3
((lp796
g22
atRp797
sS"Crohn's disease"
p798
g3
((lp799
g323
ag111
ag119
ag321
ag125
ag107
ag122
ag781
ag156
ag109
atRp800
sS'Lung disorder'
p801
g3
((lp802
g47
atRp803
sS'Hypernatraemia'
p804
g3
((lp805
g52
atRp806
sS'Gingival bleeding'
p807
g3
((lp808
g20
ag47
ag26
ag27
ag21
atRp809
sS'Dependence'
p810
g3
((lp811
g32
ag22
ag389
ag35
ag297
ag400
ag404
ag218
ag33
ag34
ag178
ag296
ag27
atRp812
sS'Ill-defined disorder'
p813
g3
((lp814
g20
ag70
ag21
ag124
ag6
ag111
ag223
ag119
ag385
ag22
ag47
ag125
ag23
ag8
ag26
ag27
atRp815
sS'Application site pain'
p816
g3
((lp817
S'5916'
p818
ag367
atRp819
sS'Catheter site haemorrhage'
p820
g3
((lp821
g353
atRp822
sS'Pemphigus'
p823
g3
((lp824
g205
ag206
ag177
atRp825
sS'Pulmonary arterial hypertension'
p826
g3
((lp827
g34
atRp828
sS'Oesophagitis'
p829
g3
((lp830
g20
ag70
ag6
ag138
ag8
ag23
ag47
ag107
ag25
ag26
ag27
atRp831
sS'Accidental overdose'
p832
g3
((lp833
g296
ag297
ag178
atRp834
sS'Hyperprolactinaemia'
p835
g3
((lp836
g81
ag146
ag103
ag33
ag34
ag19
ag60
ag113
ag59
ag110
ag22
ag115
ag147
ag120
ag62
ag65
ag63
ag64
ag82
ag24
ag20
ag26
atRp837
sS'Coordination abnormal'
p838
g3
((lp839
g81
ag145
ag103
ag146
ag389
ag218
ag33
ag34
ag35
ag19
ag60
ag58
ag539
ag110
ag330
ag112
ag108
aS'6323'
p840
ag22
ag115
ag116
ag117
ag118
ag148
ag223
ag113
ag120
ag121
ag62
ag65
ag63
ag64
ag82
ag404
ag123
ag24
ag20
ag32
ag21
ag331
ag6
ag23
aS'6335'
p841
ag48
ag26
ag27
atRp842
sS'Ileus paralytic'
p843
g3
((lp844
g81
ag145
ag103
ag543
ag146
ag313
ag314
ag105
ag33
ag34
ag35
ag326
ag113
aS'773'
p845
ag59
ag110
ag112
ag108
aS'203068'
p846
ag297
ag178
ag296
ag22
ag114
ag115
aS'5005'
p847
ag116
ag117
ag118
ag148
ag120
ag62
ag63
ag82
ag24
ag23
aS'50632'
p848
ag149
atRp849
sS'Tension headache'
p850
g3
((lp851
g33
ag34
ag35
atRp852
sS'Cutaneous vasculitis'
p853
g3
((lp854
S'768'
p855
ag486
aS'771'
p856
ag162
ag163
ag223
ag488
ag463
ag164
atRp857
sS'Renal failure'
p858
g3
((lp859
g44
ag5
ag70
ag240
ag353
ag125
ag107
ag109
ag234
ag177
ag8
ag47
ag277
ag15
ag46
ag223
ag119
ag321
ag134
ag77
ag323
ag20
ag205
ag206
ag23
ag6
ag662
ag74
ag124
ag26
atRp860
sS'Capillary leak syndrome'
p861
g3
((lp862
g76
ag134
ag73
atRp863
sS'Mydriasis'
p864
g3
((lp865
g81
ag145
ag543
ag313
ag314
ag105
ag33
ag34
ag35
ag110
ag288
ag112
ag108
ag296
ag22
ag116
ag117
ag118
ag148
ag120
ag62
ag63
ag82
ag24
ag32
ag21
ag27
atRp866
sS'Hiccups'
p867
g3
((lp868
g20
ag32
ag123
ag240
ag89
ag8
ag23
ag47
ag121
ag506
ag404
ag65
ag64
ag25
ag26
ag27
atRp869
sS'Eosinophil count increased'
p870
g3
((lp871
g19
ag60
ag147
ag103
ag59
ag64
ag24
atRp872
sS'Herpes dermatitis'
p873
g3
((lp874
g547
atRp875
sS'Epilepsy'
p876
g3
((lp877
g185
ag316
ag306
atRp878
sS'Large intestine perforation'
p879
g3
((lp880
g291
atRp881
sS'Angle closure glaucoma'
p882
g3
((lp883
g81
ag145
ag117
ag118
ag148
ag120
ag22
ag62
ag33
ag34
ag35
ag82
ag24
atRp884
sS'Increased appetite'
p885
g3
((lp886
g103
ag33
ag25
ag19
ag60
ag58
ag234
ag59
ag110
ag112
ag108
ag22
ag116
ag121
ag62
ag63
ag64
ag82
ag24
ag20
ag21
ag6
ag23
ag26
ag27
atRp887
sS'Myoglobin urine present'
p888
g3
((lp889
g655
ag276
atRp890
sS'Hypokalaemia'
p891
g3
((lp892
g20
ag44
ag46
ag23
ag73
ag47
ag26
ag27
atRp893
sS'Muscle tightness'
p894
g3
((lp895
g81
ag19
ag147
ag64
ag59
ag60
ag146
ag110
ag120
ag22
ag62
ag33
ag63
ag34
ag35
ag82
ag103
ag24
atRp896
sS'Ear malformation'
p897
g3
((lp898
g90
ag242
ag240
ag111
ag119
ag241
ag89
atRp899
sS'Convulsion'
p900
g3
((lp901
g110
ag34
ag112
ag22
aS'134'
p902
ag297
ag23
ag24
ag35
ag108
ag62
ag33
ag63
aS'135'
p903
ag178
ag82
ag296
ag64
ag123
ag27
ag5
atRp904
sS'Breast disorder'
p905
g3
((lp906
g20
ag58
ag26
ag23
ag22
ag47
ag306
ag27
atRp907
sS'Injection site reaction'
p908
g3
((lp909
g25
ag73
atRp910
sS"Cushing's syndrome"
p911
g3
((lp912
g90
ag242
ag547
ag52
ag53
ag241
atRp913
sS'Gingival hyperplasia'
p914
g3
((lp915
g90
ag242
aS'2326'
p916
ag649
aS'8911'
p917
ag840
ag317
ag318
ag315
ag845
ag180
ag320
ag20
ag324
ag325
ag23
ag181
ag241
ag48
ag149
ag26
ag27
atRp918
sS'Pregnancy test false positive'
p919
g3
((lp920
g149
ag62
ag59
ag120
ag110
atRp921
sS'Vasculitis necrotising'
p922
g3
((lp923
g855
ag486
ag856
ag162
ag163
ag488
ag164
atRp924
sS'Breast discomfort'
p925
g3
((lp926
g305
ag306
atRp927
sS'Gastric atony'
p928
g3
((lp929
g296
ag506
ag297
ag178
atRp930
sS'Vulvovaginal mycotic infection'
p931
g3
((lp932
g8
ag306
atRp933
sS'Breast discharge'
p934
g3
((lp935
g381
ag185
ag306
ag63
ag64
atRp936
sS'Body temperature increased'
p937
g3
((lp938
g20
ag485
ag15
ag21
ag116
ag6
ag58
ag23
ag22
ag47
ag26
ag27
atRp939
sS'Defect conduction intraventricular'
p940
g3
((lp941
g48
atRp942
sS'Breakthrough pain'
p943
g3
((lp944
g296
ag297
ag178
atRp945
sS'Injury'
p946
g3
((lp947
g20
ag32
ag21
ag6
ag124
ag316
ag23
ag22
ag47
ag74
ag236
ag26
ag27
atRp948
sS'Pulmonary fibrosis'
p949
g3
((lp950
g76
atRp951
sS'Dyskinesia'
p952
g3
((lp953
g81
ag145
ag103
ag563
ag147
ag105
ag106
ag33
ag34
ag35
ag19
ag60
ag58
ag59
ag110
ag112
ag108
ag649
ag22
ag115
ag650
ag116
ag117
ag118
ag148
ag113
ag120
ag121
ag403
ag62
ag65
ag63
ag64
ag82
ag146
ag123
ag24
ag20
ag32
ag21
ag23
ag848
ag149
ag26
ag27
atRp954
sS'Phobia'
p955
g3
((lp956
g8
atRp957
sS'Weight decreased'
p958
g3
((lp959
g44
ag103
ag33
ag19
ag60
ag113
ag59
ag110
ag112
ag108
ag47
ag22
ag46
ag121
ag62
ag63
ag64
ag24
ag20
ag6
ag23
ag26
ag27
atRp960
sS'Biliary fibrosis'
p961
g3
((lp962
g304
aS'1890'
p963
atRp964
sS'Haematemesis'
p965
g3
((lp966
g21
ag6
ag64
ag47
ag121
ag125
ag107
aS'3066'
p967
aS'5139'
p968
ag902
atRp969
sS'Ophthalmic herpes simplex'
p970
g3
((lp971
g420
atRp972
sS'Diabetic coma'
p973
g3
((lp974
g81
ag145
ag103
ag146
ag19
ag60
ag113
ag59
ag110
ag112
ag108
ag22
ag115
ag147
ag117
ag118
ag148
ag120
ag121
ag62
ag65
ag63
ag64
ag82
ag123
ag24
ag26
atRp975
sS'Type 2 diabetes mellitus'
p976
g3
((lp977
g19
ag60
ag113
ag103
ag59
ag110
ag146
ag147
ag403
ag62
ag65
ag63
ag64
ag24
atRp978
sS'Monoplegia'
p979
g3
((lp980
g316
ag52
atRp981
sS'Dyspnoea'
p982
g3
((lp983
g20
ag45
ag134
ag59
ag6
ag240
ag119
ag23
ag22
ag47
ag65
ag64
ag26
ag27
atRp984
sS'Cardiomegaly'
p985
g3
((lp986
g52
ag27
atRp987
sS'Depersonalisation'
p988
g3
((lp989
g20
ag32
ag21
ag6
ag26
ag23
ag22
ag121
ag33
ag34
ag64
ag123
ag27
atRp990
sS'Endometrial hyperplasia'
p991
g3
((lp992
g655
ag234
ag306
atRp993
sS'Withdrawal hypertension'
p994
g3
((lp995
S'4881'
p996
atRp997
sS'Respiratory failure'
p998
g3
((lp999
g411
ag401
ag218
ag402
ag407
atRp1000
sS'Pancreatitis'
p1001
g3
((lp1002
g44
ag316
ag5
ag240
ag125
ag107
aS'7172'
p1003
ag25
ag109
ag58
ag486
ag177
ag301
ag111
ag488
ag47
ag163
ag15
ag46
ag223
ag119
ag321
aS'1803'
p1004
ag323
ag20
ag32
ag21
ag6
ag124
ag23
ag74
ag236
ag26
ag27
atRp1005
sS'Orthostatic hypotension'
p1006
g3
((lp1007
g81
ag317
ag103
ag146
ag104
ag33
ag34
ag19
ag60
ag58
ag59
ag110
ag488
ag112
ag108
ag22
ag114
ag115
ag147
ag315
ag116
ag117
ag118
ag148
ag113
ag120
ag121
ag403
ag62
ag65
ag63
ag64
ag82
ag123
ag24
ag20
ag32
ag324
ag325
ag23
ag177
ag26
ag27
atRp1008
sS'Parkinsonian rest tremor'
p1009
g3
((lp1010
g19
ag60
ag147
ag103
ag59
ag110
ag146
ag120
ag115
ag62
ag63
ag64
ag82
ag149
ag24
atRp1011
sS'Heart disease congenital'
p1012
g3
((lp1013
g616
atRp1014
sS'Sneezing'
p1015
g3
((lp1016
S'57053'
p1017
ag189
ag297
ag178
ag296
ag123
atRp1018
sS"Tourette's disorder"
p1019
g3
((lp1020
g35
atRp1021
sS'Delayed delivery'
p1022
g3
((lp1023
g189
atRp1024
sS'Embolism venous'
p1025
g3
((lp1026
g146
ag103
ag52
ag306
ag19
ag60
ag302
ag234
ag59
ag110
ag316
ag112
ag108
ag115
ag113
ag121
ag62
ag64
ag82
ag123
ag24
ag20
ag69
ag185
ag23
ag305
ag27
atRp1027
sS'Connective tissue disorder'
p1028
g3
((lp1029
g20
ag47
ag26
ag27
ag23
atRp1030
sS'Angioedema'
p1031
g3
((lp1032
g20
ag58
ag177
ag21
ag6
ag124
ag223
ag23
ag22
ag125
ag107
ag236
ag26
ag27
atRp1033
sS'Sinus tachycardia'
p1034
g3
((lp1035
g81
ag145
ag903
aS'140'
p1036
ag117
ag118
ag148
ag8
ag34
ag62
ag70
ag967
ag968
ag902
aS'100'
p1037
ag24
aS'136'
p1038
atRp1039
sS'Nephritic syndrome'
p1040
g3
((lp1041
g107
aS'11251'
p1042
atRp1043
sS'Hypoaesthesia'
p1044
g3
((lp1045
g81
ag145
ag103
ag33
ag34
ag58
ag112
ag108
ag47
ag219
ag22
ag114
ag115
ag116
ag117
ag118
ag148
ag121
ag62
ag65
ag63
ag64
ag82
ag24
ag20
ag32
ag21
ag6
ag124
ag23
ag48
ag26
ag27
atRp1046
sS'Conjunctivitis'
p1047
g3
((lp1048
g20
ag6
ag124
ag47
ag26
ag27
atRp1049
sS'Malignant hypertension'
p1050
g3
((lp1051
g12
atRp1052
sS'Generalised oedema'
p1053
g3
((lp1054
g26
ag27
atRp1055
sS'Polycythaemia'
p1056
g3
((lp1057
g90
ag242
ag547
ag185
ag241
ag179
atRp1058
sS'Pathological gambling'
p1059
g3
((lp1060
g19
ag406
ag113
ag103
ag59
ag60
ag146
ag110
ag147
ag108
ag403
ag62
ag65
ag63
ag64
ag24
atRp1061
sS'Hepatic enzyme increased'
p1062
g3
((lp1063
g60
ag58
ag21
ag463
ag6
ag240
ag22
ag121
ag125
ag156
ag123
ag27
atRp1064
sS'Retroperitoneal haemorrhage'
p1065
g3
((lp1066
g363
atRp1067
sS'Myopia'
p1068
g3
((lp1069
g162
ag163
atRp1070
sS'Haemolytic anaemia'
p1071
g3
((lp1072
g40
ag39
ag177
ag5
ag21
ag204
ag205
ag206
ag111
ag321
ag463
ag125
ag107
ag223
ag74
ag124
ag15
ag323
ag6
atRp1073
sS'Extravasation'
p1074
g3
((lp1075
g70
ag604
ag605
ag234
ag71
ag606
ag8
ag617
ag47
ag607
ag846
ag608
ag75
ag610
aS'6582'
p1076
ag304
ag611
aS'5460'
p1077
ag612
ag77
ag442
ag613
ag616
ag72
ag23
ag662
ag74
ag126
ag619
ag620
ag621
atRp1078
sS'Extradural abscess'
p1079
g3
((lp1080
g189
atRp1081
sS'Dental caries'
p1082
g3
((lp1083
g81
ag145
ag113
ag103
ag59
ag116
ag117
ag118
ag148
ag110
ag22
ag112
ag108
ag121
ag115
ag62
ag33
ag34
ag35
ag82
ag24
atRp1084
sS'Myalgia'
p1085
g3
((lp1086
g20
ag485
ag234
ag177
ag21
ag6
ag124
ag70
ag58
ag23
ag235
ag47
ag134
ag74
ag236
ag77
ag26
ag27
ag109
ag22
atRp1087
sS'Ectopic pregnancy'
p1088
g3
((lp1089
g306
atRp1090
sS'Stupor'
p1091
g3
((lp1092
g20
ag404
ag389
aS'7366'
p1093
ag218
ag64
ag26
ag27
atRp1094
sS'Neutropenic colitis'
p1095
g3
((lp1096
g47
ag604
ag609
ag26
ag617
atRp1097
sS'Erection increased'
p1098
g3
((lp1099
g227
ag267
ag268
atRp1100
sS'Lymphadenitis'
p1101
g3
((lp1102
g81
ag145
ag103
ag543
ag116
ag117
ag118
ag148
ag110
ag22
ag120
ag108
ag112
ag62
ag114
ag63
ag34
ag35
ag82
ag33
ag24
atRp1103
sS'Pyoderma'
p1104
g3
((lp1105
g52
atRp1106
sS'Neck pain'
p1107
g3
((lp1108
g22
atRp1109
sS'Constipation'
p1110
g3
((lp1111
g81
ag145
ag103
ag147
ag105
ag33
ag34
ag35
ag19
ag60
ag113
ag59
ag110
ag112
ag108
ag178
ag296
ag22
ag115
ag650
ag116
ag117
ag118
ag148
ag119
ag121
ag403
ag62
ag65
ag63
ag64
ag82
ag24
ag20
ag177
ag21
ag6
ag124
ag23
ag26
ag27
atRp1112
sS'Dermatitis bullous'
p1113
g3
((lp1114
g20
ag32
ag6
ag26
ag385
ag8
ag23
ag22
ag47
ag74
ag124
ag367
ag27
atRp1115
sS'Vaginal discharge'
p1116
g3
((lp1117
g381
ag306
ag27
ag8
atRp1118
sS'Libido increased'
p1119
g3
((lp1120
g19
ag60
ag113
ag103
ag59
ag110
ag146
ag147
ag22
ag120
ag24
ag403
ag62
ag65
ag63
ag64
ag33
ag108
ag27
atRp1121
sS'Delusion'
p1122
g3
((lp1123
g81
ag145
ag103
ag543
ag115
ag389
ag105
ag60
ag218
ag33
ag23
ag34
ag35
ag108
ag628
ag390
ag391
ag58
ag59
ag392
ag393
ag413
ag395
ag397
ag398
ag399
ag400
ag22
ag114
ag19
ag147
ag116
ag117
ag118
ag148
ag82
ag113
ag120
ag121
ag403
ag62
ag65
ag63
ag64
aS'6529'
p1124
ag404
ag123
ag24
ag146
aS'4759'
p1125
ag32
ag405
ag408
ag112
ag110
ag412
ag394
ag21
ag14
ag26
ag27
atRp1126
sS'Bladder discomfort'
p1127
g3
((lp1128
g81
atRp1129
sS'Asphyxia'
p1130
g3
((lp1131
g149
ag59
ag110
atRp1132
sS'Haemoglobin'
p1133
g3
((lp1134
g20
ag5
ag46
ag6
ag240
ag47
ag107
ag76
ag89
ag462
atRp1135
sS'Gait disturbance'
p1136
g3
((lp1137
g103
ag563
ag33
ag19
ag60
ag58
ag59
ag110
ag8
ag452
ag112
ag108
ag22
ag650
ag113
ag120
ag121
ag62
ag65
ag63
ag64
ag24
ag20
ag23
ag26
ag27
atRp1138
sS'Premenstrual syndrome'
p1139
g3
((lp1140
g381
ag306
ag27
atRp1141
sS'Bladder pain'
p1142
g3
((lp1143
g32
ag21
ag6
ag124
ag111
ag22
ag107
ag26
ag27
atRp1144
sS'Inappropriate antidiuretic hormone secretion'
p1145
g3
((lp1146
g81
ag145
ag103
ag563
ag33
ag112
ag34
ag35
ag19
ag60
ag58
ag59
ag110
ag1093
ag846
ag219
ag22
ag114
ag115
ag116
ag117
ag118
ag148
ag39
ag120
ag62
ag63
ag64
ag82
ag24
ag146
ag32
ag21
ag6
ag23
ag26
ag27
ag40
ag967
atRp1147
sS'Memory impairment'
p1148
g3
((lp1149
g404
ag405
ag408
ag413
ag6
ag223
ag389
ag111
ag21
ag1093
ag218
ag276
ag124
ag27
atRp1150
sS'Oedema peripheral'
p1151
g3
((lp1152
g20
ag324
ag59
ag6
ag22
ag26
ag27
atRp1153
sS'Muscular weakness'
p1154
g3
((lp1155
g20
ag58
ag32
ag21
ag6
ag124
ag389
ag301
ag111
ag119
ag23
ag22
ag47
ag275
ag74
ag64
ag236
ag26
ag27
ag48
atRp1156
sS'Milia'
p1157
g3
((lp1158
g513
ag514
ag515
ag516
ag517
ag518
ag519
atRp1159
sS'Ureteral spasm'
p1160
g3
((lp1161
g296
ag288
ag297
ag22
ag178
atRp1162
sS'Irritability'
p1163
g3
((lp1164
g389
ag902
ag21
ag33
ag399
ag34
ag35
ag390
ag391
ag58
ag234
ag392
ag413
ag395
ag397
ag398
aS'53919'
p1165
ag297
ag178
ag296
aS'1136'
p1166
aS'10280'
p1167
ag23
ag404
ag20
ag32
ag405
ag408
ag409
ag6
ag410
ag185
ag412
aS'8913'
p1168
ag14
ag26
ag27
atRp1169
sS'Hypertonia'
p1170
g3
((lp1171
g20
ag58
ag90
ag324
ag21
ag121
ag6
ag651
ag89
ag111
ag22
ag649
ag506
ag64
ag8
ag25
ag26
ag27
ag28
atRp1172
sS'Fanconi syndrome'
p1173
g3
((lp1174
S'4831'
p1175
aS'4830'
p1176
aS'205'
p1177
aS'204'
p1178
atRp1179
sS'Proctocolitis'
p1180
g3
((lp1181
g25
atRp1182
sS'Laryngospasm'
p1183
g3
((lp1184
g45
ag94
ag7
ag297
ag296
ag22
atRp1185
sS'Macular degeneration'
p1186
g3
((lp1187
S'54106'
p1188
atRp1189
sS'Protein urine present'
p1190
g3
((lp1191
g206
ag125
ag107
ag15
ag177
atRp1192
sS'Uterine rupture'
p1193
g3
((lp1194
S'5734'
p1195
aS'6578'
p1196
aS'5733'
p1197
aS'28232'
p1198
ag61
atRp1199
sS'Amnesia'
p1200
g3
((lp1201
g397
ag389
ag218
ag1093
ag23
ag390
ag391
ag392
ag413
ag395
ag111
ag398
ag399
ag22
ag223
ag121
ag405
ag20
ag32
ag408
ag21
ag6
ag124
ag412
ag48
ag26
ag27
atRp1202
sS'Drug dependence'
p1203
g3
((lp1204
g178
ag23
ag297
ag33
ag34
ag35
ag296
ag22
atRp1205
sS'Infarction'
p1206
g3
((lp1207
g286
ag287
ag292
ag177
ag290
atRp1208
sS'Atrial tachycardia'
p1209
g3
((lp1210
g967
ag968
ag902
atRp1211
sS'Panniculitis'
p1212
g3
((lp1213
S'29881'
p1214
ag513
ag514
aS'6646'
p1215
ag515
ag516
ag517
aS'64241'
p1216
aS'64240'
p1217
ag518
ag519
atRp1218
sS'Micturition urgency'
p1219
g3
((lp1220
g33
ag22
atRp1221
sS'Illusion'
p1222
g3
((lp1223
g405
ag408
atRp1224
sS'Pathogen resistance'
p1225
g3
((lp1226
g8
atRp1227
sS'Atypical femur fracture'
p1228
g3
((lp1229
g138
atRp1230
sS'Nervousness'
p1231
g3
((lp1232
g81
ag389
ag218
ag33
ag35
ag58
ag413
ag21
ag400
ag22
ag114
ag120
ag82
ag404
ag405
ag408
ag6
ag124
ag23
ag394
ag26
ag27
atRp1233
sS'Hypomagnesaemia'
p1234
g3
((lp1235
g25
ag89
atRp1236
sS'Subarachnoid haemorrhage'
p1237
g3
((lp1238
g65
ag64
atRp1239
sS'Syncope'
p1240
g3
((lp1241
g147
ag103
ag240
ag33
ag108
ag19
ag60
ag58
ag59
ag110
ag393
ag413
ag111
ag112
ag113
ag178
ag22
ag114
ag115
ag116
ag119
ag120
ag62
ag65
ag63
ag64
ag123
ag24
ag20
ag32
ag324
ag21
ag6
ag23
ag177
ag48
ag26
ag27
atRp1242
sS'Body temperature decreased'
p1243
g3
((lp1244
g147
ag145
ag103
ag563
ag218
ag628
ag19
ag60
ag58
ag59
ag110
ag452
ag112
ag108
ag297
ag22
ag115
ag117
ag118
ag148
ag113
ag121
ag62
ag65
ag63
ag64
ag404
ag123
ag24
ag20
ag32
ag21
ag146
ag26
ag27
atRp1245
sS'Parotid gland enlargement'
p1246
g3
((lp1247
g81
ag145
ag103
ag543
ag146
ag313
ag314
ag105
ag33
ag34
ag60
ag58
ag59
ag110
ag112
ag108
ag219
ag22
ag114
ag115
ag116
ag117
ag118
ag148
ag113
ag1167
ag62
ag65
ag120
ag64
ag82
ag123
ag24
ag21
ag14
ag63
atRp1248
sS'Pharyngitis'
p1249
g3
((lp1250
g20
ag177
ag6
ag124
ag23
ag47
ag277
ag27
ag109
atRp1251
sS'Electrocardiogram repolarisation abnormality'
p1252
g3
((lp1253
S'25974'
p1254
aS'81693'
p1255
aS'6947'
p1256
aS'4548'
p1257
aS'326625'
p1258
aS'8029'
p1259
aS'6948'
p1260
aS'4594'
p1261
aS'166785'
p1262
aS'4552'
p1263
atRp1264
sS'Nephropathy'
p1265
g3
((lp1266
g205
ag206
atRp1267
sS'Discomfort'
p1268
g3
((lp1269
g20
ag70
ag21
ag6
ag111
ag223
ag119
ag385
ag22
ag47
ag23
ag124
ag26
ag27
atRp1270
sS'Facial paresis'
p1271
g3
((lp1272
g276
atRp1273
sS'Dermatitis diaper'
p1274
g3
((lp1275
g206
atRp1276
sS'Iritis'
p1277
g3
((lp1278
g138
ag420
atRp1279
sS'Cardiac arrest'
p1280
g3
((lp1281
g20
ag32
ag59
ag110
ag23
ag22
ag189
ag48
ag178
ag296
ag26
ag27
atRp1282
sS'Retinal vein occlusion'
p1283
g3
((lp1284
g227
ag267
ag268
atRp1285
sS'Haemorrhagic stroke'
p1286
g3
((lp1287
g363
atRp1288
sS'Cystitis noninfective'
p1289
g3
((lp1290
g32
ag21
ag6
ag124
ag22
ag107
ag27
atRp1291
sS'Tumour lysis syndrome'
p1292
g3
((lp1293
g44
ag57
ag134
ag489
ag70
ag46
ag282
ag47
ag76
ag77
ag281
atRp1294
sS'Trigger finger'
p1295
g3
((lp1296
g302
atRp1297
sS'Deep vein thrombosis'
p1298
g3
((lp1299
g19
ag60
ag234
ag301
ag23
ag47
ag121
ag20
ag26
ag27
atRp1300
sS'Feeling cold'
p1301
g3
((lp1302
g45
ag65
ag94
atRp1303
sS'Spinal anaesthesia'
p1304
g3
((lp1305
g189
atRp1306
sS'Oesophageal disorder'
p1307
g3
((lp1308
g25
ag219
atRp1309
sS'Acute interstitial pneumonitis'
p1310
g3
((lp1311
g122
ag157
ag158
atRp1312
sS'Ventricular fibrillation'
p1313
g3
((lp1314
g81
ag145
ag103
ag313
ag314
ag104
ag58
ag110
ag219
ag22
ag322
ag116
ag117
ag118
ag148
ag538
ag62
ag65
ag63
ag64
ag23
ag48
atRp1315
sS'Thrombosis'
p1316
g3
((lp1317
g20
ag57
ag58
ag234
ag303
ag46
ag306
ag185
ag23
ag47
ag44
ag26
ag27
atRp1318
sS'Ovarian hyperstimulation syndrome'
p1319
g3
((lp1320
S'2798'
p1321
atRp1322
sS'Hypersexuality'
p1323
g3
((lp1324
g19
ag406
ag113
ag103
ag59
ag60
ag146
ag110
ag147
ag108
ag403
ag62
ag65
ag63
ag64
ag24
atRp1325
sS'Cardioactive drug level increased'
p1326
g3
((lp1327
g712
ag713
ag714
ag715
ag716
ag717
atRp1328
sS'Subacute endocarditis'
p1329
g3
((lp1330
g90
ag242
ag240
ag111
ag119
ag241
ag89
atRp1331
sS'Female sexual dysfunction'
p1332
g3
((lp1333
g81
ag32
ag21
ag33
ag34
ag22
atRp1334
sS'Insulin resistance'
p1335
g3
((lp1336
g70
atRp1337
sS'Episcleritis'
p1338
g3
((lp1339
g138
atRp1340
sS'Herpes zoster'
p1341
g3
((lp1342
g90
ag21
ag6
ag22
ag47
ag27
atRp1343
sS'Tardive dyskinesia'
p1344
g3
((lp1345
g81
ag145
ag103
ag146
ag105
ag106
ag33
ag34
ag35
ag19
ag60
ag58
ag59
ag110
ag211
ag112
ag108
ag22
ag115
ag147
ag116
ag117
ag118
ag148
ag113
ag120
ag121
ag62
ag65
ag63
ag64
ag82
ag123
ag24
ag149
ag32
ag21
ag6
ag23
ag14
ag26
ag27
atRp1346
sS'Head injury'
p1347
g3
((lp1348
g296
ag297
ag27
ag178
atRp1349
sS'Dystonia'
p1350
g3
((lp1351
S'3360'
p1352
ag110
atRp1353
sS'Hallucination'
p1354
g3
((lp1355
g81
ag145
ag396
ag543
aS'55244'
p1356
ag397
ag240
ag60
ag125
ag218
ag33
ag1093
ag34
ag35
aS'116444'
p1357
ag108
ag103
ag390
ag391
ag58
ag392
ag393
ag394
ag395
ag288
ag111
ag398
ag399
ag400
ag297
ag178
ag296
ag219
ag389
ag147
ag116
ag117
ag118
ag148
ag113
ag1167
ag23
ag403
ag62
ag65
ag63
ag64
ag82
ag404
ag24
ag20
ag32
ag405
ag408
ag409
ag112
ag89
ag110
ag412
ag22
ag6
ag506
ag413
ag410
ag21
ag26
ag27
atRp1358
sS'Orbital oedema'
p1359
g3
((lp1360
g44
ag57
ag46
atRp1361
sS'Iris hyperpigmentation'
p1362
g3
((lp1363
g420
atRp1364
sS'Faecal incontinence'
p1365
g3
((lp1366
g19
ag60
ag103
ag59
ag110
ag62
ag64
ag26
atRp1367
sS'Intraocular pressure increased'
p1368
g3
((lp1369
g81
ag145
ag118
ag148
ag52
ag53
atRp1370
sS'Glossitis'
p1371
g3
((lp1372
g20
ag15
ag6
ag124
ag240
ag111
ag125
ag107
ag25
ag26
ag27
atRp1373
sS'Loss of libido'
p1374
g3
((lp1375
g22
atRp1376
sS'Photosensitivity reaction'
p1377
g3
((lp1378
g20
ag40
ag58
ag21
ag59
ag110
ag6
ag124
ag223
ag22
ag125
ag107
ag177
ag26
ag27
ag62
ag15
atRp1379
sS'Hypersomnia'
p1380
g3
((lp1381
g81
ag147
ag103
ag146
ag218
ag33
ag34
ag35
ag19
ag60
ag58
ag59
ag110
ag112
ag108
ag22
ag115
ag117
ag118
ag148
ag113
ag120
ag121
ag62
ag65
ag63
ag64
ag82
ag123
ag24
ag20
ag27
atRp1382
sS'Swelling'
p1383
g3
((lp1384
g20
ag124
ag26
atRp1385
sS'Nitrogen balance negative'
p1386
g3
((lp1387
g552
ag316
ag52
ag53
atRp1388
sS'Pseudocholinesterase deficiency'
p1389
g3
((lp1390
S'590'
p1391
ag189
ag123
ag628
ag35
atRp1392
sS'Catheter site cellulitis'
p1393
g3
((lp1394
S'56655'
p1395
aS'50484'
p1396
aS'5427'
p1397
aS'5426'
p1398
aS'54107'
p1399
aS'6241'
p1400
atRp1401
sS'Viral infection'
p1402
g3
((lp1403
g27
atRp1404
sS'Nephrolithiasis'
p1405
g3
((lp1406
g6
ag21
atRp1407
sS'Epstein-Barr virus infection'
p1408
g3
((lp1409
g547
atRp1410
sS'Pemphigoid'
p1411
g3
((lp1412
S'6817'
p1413
atRp1414
sS'Fungal skin infection'
p1415
g3
((lp1416
g47
ag8
ag23
atRp1417
sS'Multiple fractures'
p1418
g3
((lp1419
g25
ag27
ag21
atRp1420
sS'Choreoathetosis'
p1421
g3
((lp1422
g81
ag145
ag103
ag146
ag33
ag34
ag35
ag19
ag60
ag113
ag59
ag110
ag211
ag112
ag108
ag22
ag115
ag147
ag117
ag118
ag148
ag120
ag121
ag62
ag65
ag63
ag64
ag82
ag123
ag24
atRp1423
sS'Pulmonary hypertension'
p1424
g3
((lp1425
g57
ag90
ag46
atRp1426
sS'Neutropenic sepsis'
p1427
g3
((lp1428
g73
ag70
ag614
ag71
ag77
ag47
ag75
ag609
ag963
atRp1429
sS'Hirsutism'
p1430
g3
((lp1431
g302
ag185
ag52
ag381
ag23
ag179
ag306
ag27
atRp1432
sS'Somnolence'
p1433
g3
((lp1434
g81
ag145
ag103
ag115
ag240
ag60
ag218
ag33
ag385
ag34
ag149
ag23
ag108
ag390
ag391
ag58
ag59
ag392
ag394
ag395
ag396
ag397
ag398
ag399
ag400
ag297
ag178
ag296
ag219
ag389
ag114
ag19
ag147
ag116
ag117
ag118
ag148
ag223
ag113
ag120
ag121
ag403
ag62
ag65
ag63
ag64
ag82
ag404
ag123
ag24
ag20
ag32
ag405
ag408
ag409
ag112
ag410
ag146
ag110
ag412
ag22
ag6
ag413
ag21
ag14
ag26
ag27
atRp1435
sS'Erythropenia'
p1436
g3
((lp1437
g40
ag39
aS'3767'
p1438
atRp1439
sS'Myoclonus'
p1440
g3
((lp1441
g81
ag145
ag103
ag146
ag147
ag33
ag112
ag34
ag35
ag19
ag60
ag113
ag59
ag110
ag1093
ag108
ag178
ag296
ag22
ag115
ag650
ag116
ag117
ag118
ag148
ag120
ag121
ag62
ag63
ag64
ag82
ag123
ag24
ag20
ag32
ag48
ag27
atRp1442
sS'Choking'
p1443
g3
((lp1444
S'7067'
p1445
aS'7068'
p1446
atRp1447
sS'Liver injury'
p1448
g3
((lp1449
g485
ag407
ag6
ag89
ag411
ag58
ag26
ag27
ag242
atRp1450
sS'Myoglobinuria'
p1451
g3
((lp1452
g655
ag276
atRp1453
sS'Drug abuse'
p1454
g3
((lp1455
g296
ag297
ag22
ag34
ag178
atRp1456
sS'Feeling jittery'
p1457
g3
((lp1458
g33
ag22
ag34
ag35
atRp1459
sS'Paranoia'
p1460
g3
((lp1461
g81
ag145
aS'1268'
p1462
ag563
ag103
ag33
ag34
ag19
ag60
ag58
ag59
ag110
ag112
ag108
ag178
ag22
ag147
ag117
ag118
ag148
ag113
ag120
ag121
ag62
ag63
ag64
ag82
ag146
ag562
ag123
ag24
ag669
ag27
atRp1463
sS'Hepatitis'
p1464
g3
((lp1465
g5
ag70
ag8
aS'196'
p1466
ag105
ag106
ag107
ag33
ag385
ag109
ag58
ag303
ag111
ag112
ag47
ag22
ag15
ag116
ag223
ag119
ag321
ag156
ag24
ag20
ag32
ag21
ag6
ag124
ag125
ag23
ag74
ag26
ag27
atRp1467
sS'Disseminated intravascular coagulation'
p1468
g3
((lp1469
g20
ag26
aS'10864'
p1470
ag1042
atRp1471
sS'Neutropenia'
p1472
g3
((lp1473
g134
ag70
ag177
ag46
ag205
ag206
ag240
ag8
ag23
ag77
ag47
ag76
ag26
ag15
atRp1474
sS'Alkalosis hypochloraemic'
p1475
g3
((lp1476
g486
atRp1477
sS'Thyroxine decreased'
p1478
g3
((lp1479
S'5591'
p1480
aS'5158'
p1481
aS'3710'
p1482
aS'5293'
p1483
aS'5290'
p1484
aS'5291'
p1485
aS'472'
p1486
atRp1487
sS'Apnoea'
p1488
g3
((lp1489
g189
ag401
ag90
ag407
ag411
ag402
ag235
ag649
ag404
ag218
ag297
ag48
ag178
ag296
atRp1490
sS'Oligohydramnios'
p1491
g3
((lp1492
g177
atRp1493
sS'Tongue oedema'
p1494
g3
((lp1495
g147
ag103
ag389
ag19
ag60
ag58
ag59
ag110
ag112
ag108
ag22
ag118
ag113
ag121
ag62
ag65
ag63
ag64
ag123
ag24
ag20
ag404
ag21
ag6
ag27
atRp1496
sS'Sensory loss'
p1497
g3
((lp1498
g81
ag145
ag103
ag313
ag314
ag105
ag33
ag34
ag58
ag110
ag112
ag108
ag846
ag114
ag115
ag116
ag117
ag118
ag148
ag120
ag538
ag62
ag65
ag63
ag64
ag82
ag24
ag23
ag48
atRp1499
sS'Polyneuropathy'
p1500
g3
((lp1501
g8
atRp1502
sS'Fungaemia'
p1503
g3
((lp1504
g89
ag241
ag90
ag242
atRp1505
sS'Congestive cardiomyopathy'
p1506
g3
((lp1507
g47
ag234
atRp1508
sS'Blood cholesterol increased'
p1509
g3
((lp1510
g19
ag60
ag103
ag21
ag59
ag22
ag185
ag64
ag120
ag24
ag62
ag33
ag34
ag35
ag82
ag20
ag26
ag27
atRp1511
sS'Ileus'
p1512
g3
((lp1513
g20
ag70
ag22
ag240
ag119
ag23
ag632
ag47
ag846
ag297
ag296
ag77
ag26
ag27
atRp1514
sS'Back pain'
p1515
g3
((lp1516
g20
ag6
ag8
ag77
ag47
ag74
ag236
ag26
ag27
atRp1517
sS'Renal tubular disorder'
p1518
g3
((lp1519
g1175
ag1176
ag1177
ag1178
atRp1520
sS'Azotaemia'
p1521
g3
((lp1522
g107
atRp1523
sS'Bursitis'
p1524
g3
((lp1525
g6
ag25
ag33
ag27
ag22
atRp1526
sS'Neurotoxicity'
p1527
g3
((lp1528
g134
ag606
ag73
ag47
ag607
ag846
ag608
ag490
ag75
ag487
ag76
ag610
ag304
ag611
ag612
ag77
ag442
ag613
ag616
ag489
ag189
ag74
ag620
ag621
atRp1529
sS'Cellulitis'
p1530
g3
((lp1531
g134
ag90
ag77
ag47
ag75
ag487
ag73
atRp1532
sS'Muscle spasms'
p1533
g3
((lp1534
g19
ag60
ag58
ag32
ag21
ag59
ag6
ag124
ag119
ag23
ag22
ag47
ag74
ag64
ag20
ag236
ag26
ag27
atRp1535
sS'Seasonal allergy'
p1536
g3
((lp1537
g35
atRp1538
sS'Hypoglycaemia'
p1539
g3
((lp1540
g20
ag40
ag1004
ag5
ag59
ag6
ag21
ag23
ag22
ag156
ag26
ag27
atRp1541
sS'Erythema'
p1542
g3
((lp1543
g20
ag234
ag6
ag124
ag23
ag47
ag26
atRp1544
sS'Hyperinsulinism'
p1545
g3
((lp1546
g19
ag60
ag147
ag103
ag59
ag115
ag62
ag63
ag64
ag24
atRp1547
sS'Sudden death'
p1548
g3
((lp1549
g81
ag145
ag103
ag563
ag104
ag19
ag60
ag113
ag59
ag110
ag112
ag108
ag22
ag114
ag115
ag147
ag117
ag118
ag148
ag120
ag121
ag62
ag63
ag64
ag82
ag123
ag24
ag146
ag614
ag23
ag14
atRp1550
sS'Onychomadesis'
p1551
g3
((lp1552
g963
atRp1553
sS'Oesophagitis ulcerative'
p1554
g3
((lp1555
g52
ag53
atRp1556
sS'Extrasystoles'
p1557
g3
((lp1558
g968
ag90
ag903
ag6
ag240
ag35
ag58
aS'5141'
p1559
ag33
ag34
ag902
ag32
ag22
atRp1560
sS'Candiduria'
p1561
g3
((lp1562
g8
ag204
atRp1563
sS'Pelvic pain'
p1564
g3
((lp1565
g20
ag32
ag21
ag6
ag306
ag23
ag47
ag33
ag26
ag27
atRp1566
sS'Drug eruption'
p1567
g3
((lp1568
g6
ag57
ag26
ag27
ag21
atRp1569
sS'Nasopharyngitis'
p1570
g3
((lp1571
g19
ag60
ag147
ag1004
ag59
ag22
ag297
ag20
ag27
atRp1572
sS'Acute coronary syndrome'
p1573
g3
((lp1574
g125
ag107
ag33
ag34
ag109
ag58
ag234
ag591
ag177
ag316
ag8
ag47
ag46
ag77
ag65
ag64
ag20
ag6
ag23
ag74
ag236
ag26
ag27
atRp1575
sS'Eosinophilia'
p1576
g3
((lp1577
g6
ag58
ag5
ag59
ag110
ag117
ag118
ag21
ag112
ag108
ag105
ag121
ag62
ag22
ag63
ag206
ag205
ag15
ag24
ag122
atRp1578
sS'Acute yellow liver atrophy'
p1579
g3
((lp1580
g1466
ag8
atRp1581
sS'Vasculitic rash'
p1582
g3
((lp1583
S'10800'
p1584
atRp1585
sS'Endometriosis'
p1586
g3
((lp1587
g305
ag306
atRp1588
sS'Face oedema'
p1589
g3
((lp1590
g20
ag26
ag27
ag23
ag22
atRp1591
sS'Movement disorder'
p1592
g3
((lp1593
g81
ag147
ag103
ag146
ag33
ag19
ag60
ag113
ag59
ag110
ag108
ag649
ag22
ag115
ag120
ag121
ag62
ag65
ag63
ag64
ag82
ag123
ag24
ag20
ag26
atRp1594
sS'Myotonia'
p1595
g3
((lp1596
g63
atRp1597
sS'Vulvovaginal dryness'
p1598
g3
((lp1599
g302
atRp1600
sS'Uterine haemorrhage'
p1601
g3
((lp1602
g306
atRp1603
sS'Diabetic ketoacidosis'
p1604
g3
((lp1605
g147
ag145
ag103
ag146
ag19
ag60
ag113
ag59
ag110
ag112
ag108
ag22
ag115
ag117
ag118
ag148
ag120
ag121
ag62
ag65
ag63
ag64
ag82
ag123
ag24
ag26
atRp1606
sS'Toxic epidermal necrolysis'
p1607
g3
((lp1608
g5
ag70
ag8
ag163
ag125
ag107
ag25
ag109
ag111
ag47
ag15
ag223
ag119
ag321
ag323
ag20
ag21
ag6
ag124
ag23
ag74
ag206
ag26
ag1470
atRp1609
sS'Alcohol intolerance'
p1610
g3
((lp1611
g6
ag39
ag40
ag21
atRp1612
sS'Aplastic anaemia'
p1613
g3
((lp1614
g40
ag39
ag855
ag5
ag162
ag163
ag125
ag107
ag111
ag6
ag856
ag15
ag204
ag164
ag223
ag321
ag323
ag21
ag205
ag206
ag463
ag1470
atRp1615
sS'Alkalosis hypokalaemic'
p1616
g3
((lp1617
g552
ag52
ag53
atRp1618
sS'Eczema'
p1619
g3
((lp1620
g6
ag121
ag44
ag27
ag46
atRp1621
sS'Gamma-glutamyltransferase increased'
p1622
g3
((lp1623
g26
ag27
atRp1624
sS'Diabetes mellitus'
p1625
g3
((lp1626
g19
ag60
ag103
ag21
ag6
ag23
ag22
ag47
ag20
ag26
ag27
atRp1627
sS'Depressive symptom'
p1628
g3
((lp1629
g58
ag124
ag22
ag108
ag62
ag33
ag34
ag35
ag27
atRp1630
sS'Henoch-Schonlein purpura'
p1631
g3
((lp1632
g15
atRp1633
sS'Arterial thrombosis'
p1634
g3
((lp1635
g45
ag241
ag94
atRp1636
sS'Depression'
p1637
g3
((lp1638
g27
ag23
atRp1639
sS'Pallor'
p1640
g3
((lp1641
g147
ag60
ag146
ag103
ag90
ag59
ag115
ag120
ag64
atRp1642
sS'Anosmia'
p1643
g3
((lp1644
g8
atRp1645
sS'Anaphylactoid reaction'
p1646
g3
((lp1647
g8
ag23
aS'1135'
p1648
atRp1649
sS'Hepatic artery thrombosis'
p1650
g3
((lp1651
g547
ag548
atRp1652
sS'Tubulointerstitial nephritis'
p1653
g3
((lp1654
g58
ag323
ag5
ag204
ag6
ag8
ag111
ag321
ag125
ag107
ag74
ag25
ag109
ag15
atRp1655
sS'Abdominal pain upper'
p1656
g3
((lp1657
g27
ag22
atRp1658
sS'Migraine'
p1659
g3
((lp1660
g20
ag6
ag306
ag381
ag23
ag22
ag47
ag25
ag26
ag27
atRp1661
sS'Drug withdrawal convulsions'
p1662
g3
((lp1663
g650
atRp1664
sS'Irritable bowel syndrome'
p1665
g3
((lp1666
g22
atRp1667
sS'Blood pressure increased'
p1668
g3
((lp1669
g58
ag33
ag34
ag35
atRp1670
sS'Papilloedema'
p1671
g3
((lp1672
g52
atRp1673
sS'Hyperadrenocorticism'
p1674
g3
((lp1675
g52
ag53
atRp1676
sS'Mucosal inflammation'
p1677
g3
((lp1678
g44
ag70
ag292
ag282
ag604
ag286
ag287
ag234
ag290
ag8
ag617
ag47
ag76
ag609
ag46
ag77
ag134
ag442
ag281
ag23
ag489
ag618
ag74
ag26
atRp1679
sS'Hypersensitivity'
p1680
g3
((lp1681
g20
ag70
ag6
ag47
ag74
ag26
ag27
atRp1682
sS'Bladder dysfunction'
p1683
g3
((lp1684
g52
atRp1685
sS'Urethral stenosis'
p1686
g3
((lp1687
g296
ag297
ag178
atRp1688
sS'Ovarian cyst'
p1689
g3
((lp1690
g548
ag381
ag22
ag34
ag306
ag27
atRp1691
sS'Drug withdrawal syndrome'
p1692
g3
((lp1693
g81
ag145
ag103
ag543
ag115
ag313
ag314
ag218
ag33
ag23
ag34
ag35
ag108
ag552
ag390
ag391
ag113
ag392
ag393
ag413
ag395
ag396
ag397
ag398
ag399
ag400
ag649
ag297
ag178
ag296
ag219
ag22
ag114
ag19
ag147
ag116
ag117
ag118
ag148
ag120
ag62
ag63
ag64
ag82
ag404
ag24
ag20
ag32
ag405
ag408
ag112
ag146
ag110
ag412
ag394
ag14
ag26
ag27
atRp1694
sS'Pollakiuria'
p1695
g3
((lp1696
g81
ag317
ag103
ag146
ag33
ag34
ag25
ag19
ag60
ag58
ag110
ag111
ag112
ag108
ag22
ag114
ag115
ag315
ag116
ag117
ag148
ag320
ag120
ag62
ag65
ag63
ag64
ag82
ag24
ag20
ag32
ag324
ag21
ag325
ag6
ag124
ag23
ag26
ag27
atRp1697
sS'Pneumonia fungal'
p1698
g3
((lp1699
g134
ag489
atRp1700
sS'Joint stiffness'
p1701
g3
((lp1702
g19
ag60
ag24
ag64
atRp1703
sS'Breast engorgement'
p1704
g3
((lp1705
g19
ag62
ag59
ag110
atRp1706
sS'Scleral haemorrhage'
p1707
g3
((lp1708
g44
ag57
ag46
atRp1709
sS'Musculoskeletal discomfort'
p1710
g3
((lp1711
g20
ag485
ag234
ag177
ag21
ag6
ag124
ag58
ag23
ag235
ag47
ag134
ag74
ag236
ag487
ag77
ag26
ag27
ag109
ag22
atRp1712
sS'Pain of skin'
p1713
g3
((lp1714
S'5915'
p1715
aS'5914'
p1716
ag818
ag367
atRp1717
sS'Muscle mass'
p1718
g3
((lp1719
g552
ag316
ag52
ag53
atRp1720
sS'Hepatomegaly'
p1721
g3
((lp1722
g27
atRp1723
sS'Osteoarthritis'
p1724
g3
((lp1725
g20
ag58
ag32
ag21
ag6
ag124
ag389
ag650
ag385
ag24
ag47
ag121
ag65
ag23
ag64
ag25
ag219
ag108
ag26
ag27
ag22
atRp1726
sS'Brain oedema'
p1727
g3
((lp1728
g149
atRp1729
sS'Aphasia'
p1730
g3
((lp1731
g64
atRp1732
sS'Graft loss'
p1733
g3
((lp1734
g547
ag548
atRp1735
sS'Atrophy'
p1736
g3
((lp1737
g552
ag52
atRp1738
sS'Cataract subcapsular'
p1739
g3
((lp1740
g552
ag52
ag53
atRp1741
sS'Respiratory acidosis'
p1742
g3
((lp1743
g90
ag242
ag240
ag119
ag506
ag241
ag89
atRp1744
sS'Pulmonary oedema'
p1745
g3
((lp1746
g23
atRp1747
sS'Renal papillary necrosis'
p1748
g3
((lp1749
g125
ag107
ag111
atRp1750
sS'Trismus'
p1751
g3
((lp1752
g81
ag19
ag59
ag110
ag120
ag62
ag33
ag82
ag22
atRp1753
sS'Anorectal disorder'
p1754
g3
((lp1755
g47
ag25
ag90
ag27
atRp1756
sS'Eye haemorrhage'
p1757
g3
((lp1758
g81
ag267
ag268
ag6
ag22
ag363
ag121
ag241
ag65
ag64
ag26
ag27
atRp1759
sS'Anaemia'
p1760
g3
((lp1761
g20
ag58
ag134
ag70
ag21
ag696
ag8
ag111
ag119
ag23
ag47
ag6
ag125
ag107
ag74
ag75
ag487
ag26
ag27
ag109
ag15
atRp1762
sS'Breast cancer male'
p1763
g3
((lp1764
S'6716'
p1765
aS'6715'
p1766
atRp1767
sS'Cauda equina syndrome'
p1768
g3
((lp1769
g189
atRp1770
sS'Necrosis'
p1771
g3
((lp1772
g234
ag32
ag70
ag616
ag442
ag71
ag8
ag23
ag77
ag47
ag662
ag608
ag74
ag75
ag605
ag26
ag613
atRp1773
sS'Madarosis'
p1774
g3
((lp1775
g420
atRp1776
sS'Uterine cancer'
p1777
g3
((lp1778
g305
atRp1779
sS'Opisthotonus'
p1780
g3
((lp1781
g19
ag60
ag58
ag147
ag103
ag59
ag110
ag89
ag1352
ag115
ag120
ag22
ag506
ag62
ag63
ag64
ag82
ag146
ag149
ag123
ag24
atRp1782
sS'Urine abnormality'
p1783
g3
((lp1784
g649
ag90
atRp1785
sS'Parkinsonism'
p1786
g3
((lp1787
g81
ag147
ag103
ag146
ag33
ag19
ag60
ag58
ag59
ag110
ag112
ag108
ag22
ag115
ag650
ag117
ag118
ag148
ag113
ag120
ag121
ag62
ag65
ag63
ag64
ag82
ag123
ag24
ag23
ag149
atRp1788
sS'Immunodeficiency'
p1789
g3
((lp1790
g916
ag241
ag90
ag242
ag321
atRp1791
sS'Blindness'
p1792
g3
((lp1793
g47
ag616
ag77
atRp1794
sS'Dry throat'
p1795
g3
((lp1796
g81
ag145
ag103
ag59
ag60
ag117
ag118
ag148
ag112
ag22
ag121
ag62
ag65
ag64
ag27
ag19
atRp1797
sS'Cyst'
p1798
g3
((lp1799
g193
ag57
ag234
aS'1583'
p1800
ag77
ag47
ag489
ag306
ag27
atRp1801
sS'Pulmonary function test decreased'
p1802
g3
((lp1803
g288
ag5
ag240
ag125
ag218
ag12
ag628
ag393
ag413
ag396
ag111
ag10
ag297
ag178
ag296
ag219
ag404
ag13
ag32
ag11
ag9
ag7
ag14
atRp1804
sS'Clostridium difficile colitis'
p1805
g3
((lp1806
g8
atRp1807
sS'Death neonatal'
p1808
g3
((lp1809
g1800
atRp1810
sS'Glucose tolerance impaired'
p1811
g3
((lp1812
g316
ag52
ag23
atRp1813
sS'Angina pectoris'
p1814
g3
((lp1815
g177
atRp1816
sS'Hunger'
p1817
g3
((lp1818
g40
atRp1819
sS'Bone pain'
p1820
g3
((lp1821
g20
ag134
ag70
ag194
ag138
ag23
ag73
ag47
ag126
ag77
ag26
ag27
atRp1822
sS'Oropharyngeal pain'
p1823
g3
((lp1824
g45
ag94
ag22
atRp1825
sS'Diastolic dysfunction'
p1826
g3
((lp1827
g57
ag46
atRp1828
sS'Sensation of pressure'
p1829
g3
((lp1830
g538
ag539
ag65
ag64
atRp1831
sS'Epiphysiolysis'
p1832
g3
((lp1833
g591
ag1446
ag1445
aS'8140'
p1834
ag1165
aS'353189'
p1835
atRp1836
sS'Anterograde amnesia'
p1837
g3
((lp1838
g389
ag218
ag390
ag391
ag392
ag393
ag413
ag395
ag396
ag397
ag398
ag399
ag400
ag20
ag404
ag405
ag408
ag409
ag394
ag410
ag412
ag14
ag27
atRp1839
sS'Rhabdomyolysis'
p1840
g3
((lp1841
g44
ag60
ag58
ag21
ag121
ag6
ag124
ag46
ag223
ag119
ag23
ag22
ag47
ag649
ag276
ag277
ag236
ag26
ag27
ag74
atRp1842
sS'Neoplasm malignant'
p1843
g3
((lp1844
g20
ag44
ag234
ag46
ag547
ag47
ag26
ag27
atRp1845
sS'Pleurisy'
p1846
g3
((lp1847
g60
ag113
ag403
ag65
ag63
ag64
atRp1848
sS'Disinhibition'
p1849
g3
((lp1850
g404
ag405
ag408
ag393
ag389
ag396
ag218
atRp1851
sS'Personality change'
p1852
g3
((lp1853
g52
atRp1854
sS'Acute leukaemia'
p1855
g3
((lp1856
g485
ag616
ag692
ag70
ag617
ag47
ag74
ag75
ag604
ag605
ag442
ag613
atRp1857
sS'Tongue discolouration'
p1858
g3
((lp1859
g81
ag145
ag103
ag543
ag33
ag34
ag35
ag113
ag110
ag112
ag108
ag22
ag114
ag115
ag116
ag117
ag118
ag148
ag120
ag62
ag63
ag82
ag123
ag24
atRp1860
sS'Contusion'
p1861
g3
((lp1862
g6
ag124
ag462
ag47
atRp1863
sS'Squamous cell carcinoma'
p1864
g3
((lp1865
g547
ag548
atRp1866
sS'Atrioventricular block'
p1867
g3
((lp1868
g81
ag145
ag45
ag103
ag543
ag94
ag146
ag313
ag314
ag104
ag106
ag33
ag19
ag60
ag58
ag59
ag110
ag112
ag108
ag114
ag22
ag322
ag115
ag147
ag116
ag117
ag118
ag148
ag120
ag121
ag62
ag65
ag63
ag64
ag82
ag123
ag24
ag21
ag23
ag189
ag48
ag26
atRp1869
sS'Dermatomyositis'
p1870
g3
((lp1871
g236
ag276
atRp1872
sS'Renal failure acute'
p1873
g3
((lp1874
g193
ag70
ag177
ag8
ag23
ag47
ag74
ag236
atRp1875
sS'Orgasm abnormal'
p1876
g3
((lp1877
g33
ag34
ag35
ag1765
ag1766
ag22
atRp1878
sS'Scleral thinning'
p1879
g3
((lp1880
g552
ag316
ag52
atRp1881
sS'Pruritus'
p1882
g3
((lp1883
g5
ag205
ag23
ag6
ag26
ag27
atRp1884
sS'Weight increased'
p1885
g3
((lp1886
g81
ag145
ag103
ag146
ag147
ag105
ag33
ag112
ag34
ag35
ag25
ag108
ag306
ag19
ag60
ag58
ag234
ag59
ag110
ag385
ag113
ag22
ag114
ag115
ag650
ag116
ag117
ag118
ag148
ag302
ag120
ag121
ag403
ag62
ag65
ag63
ag64
ag82
ag123
ag24
ag20
ag21
ag6
ag124
ag381
ag23
ag26
ag27
atRp1887
sS'Immune system disorder'
p1888
g3
((lp1889
g20
ag70
ag23
ag47
ag26
ag27
atRp1890
sS'Red blood cell sedimentation rate increased'
p1891
g3
((lp1892
g177
atRp1893
sS'Eyelid pain'
p1894
g3
((lp1895
g420
atRp1896
sS'Transfusion reaction'
p1897
g3
((lp1898
g353
atRp1899
sS'Adenocarcinoma'
p1900
g3
((lp1901
g19
ag60
ag147
ag103
ag59
ag22
ag62
ag63
ag64
ag24
atRp1902
sS'Melaena'
p1903
g3
((lp1904
g21
ag6
ag47
ag125
ag107
ag25
ag22
atRp1905
sS'Oesophageal motility disorder'
p1906
g3
((lp1907
g19
ag60
ag147
ag103
ag59
ag64
ag24
atRp1908
sS'Dysphemia'
p1909
g3
((lp1910
g81
ag145
ag103
ag146
ag105
ag19
ag60
ag113
ag59
ag110
ag301
ag112
ag108
ag840
ag115
ag147
ag117
ag118
ag148
ag120
ag121
ag62
ag65
ag63
ag64
ag82
ag123
ag24
ag21
atRp1911
sS'Grand mal convulsion'
p1912
g3
((lp1913
g19
ag60
ag59
ag110
ag123
ag120
ag22
ag62
ag33
ag63
ag20
ag1037
ag26
ag24
atRp1914
sS'Intestinal ulcer'
p1915
g3
((lp1916
g242
ag240
ag111
ag321
ag463
ag125
ag107
ag781
ag632
ag109
ag15
atRp1917
sS'Alkalosis'
p1918
g3
((lp1919
g90
ag242
ag240
ag111
ag241
ag89
ag5
atRp1920
sS'Erythema nodosum'
p1921
g3
((lp1922
g234
ag32
ag6
ag26
ag381
ag23
ag122
ag8
ag305
ag306
atRp1923
sS'Tooth abscess'
p1924
g3
((lp1925
g6
ag27
ag21
ag22
atRp1926
sS'Oral pain'
p1927
g3
((lp1928
g286
ag287
ag292
ag290
atRp1929
sS'Sepsis'
p1930
g3
((lp1931
g57
ag234
ag90
ag242
ag70
ag46
ag304
ag8
ag119
ag23
ag73
ag47
ag134
ag487
ag77
ag109
atRp1932
sS'Exfoliative rash'
p1933
g3
((lp1934
g44
ag57
ag46
atRp1935
sS'Tongue paralysis'
p1936
g3
((lp1937
g19
ag60
ag147
ag103
ag59
ag110
ag146
ag120
ag115
ag62
ag63
ag64
ag82
ag24
atRp1938
sS'Acarodermatitis'
p1939
g3
((lp1940
g19
ag60
ag147
ag103
ag59
ag64
ag24
atRp1941
sS'Meningism'
p1942
g3
((lp1943
g189
atRp1944
sS'Homicidal ideation'
p1945
g3
((lp1946
g33
atRp1947
sS'Pain in jaw'
p1948
g3
((lp1949
g538
ag846
ag65
ag64
atRp1950
sS'Cystitis'
p1951
g3
((lp1952
g32
ag21
ag6
ag124
ag22
ag107
ag27
atRp1953
sS'Carbon dioxide increased'
p1954
g3
((lp1955
g7
ag9
ag10
aS'5731'
p1956
ag11
ag12
ag13
atRp1957
sS'Incontinence'
p1958
g3
((lp1959
g390
ag391
ag392
ag393
ag413
ag395
ag396
ag397
ag398
ag412
ag400
ag218
ag399
atRp1960
sS'Hypokinesia'
p1961
g3
((lp1962
g147
ag146
ag103
ag389
ag385
ag19
ag60
ag113
ag59
ag110
ag112
ag108
ag240
ag115
ag650
ag120
ag121
ag403
ag62
ag65
ag63
ag64
ag82
ag404
ag123
ag24
ag20
ag32
ag21
ag6
ag23
ag22
aS'6330'
p1963
ag48
ag26
ag27
atRp1964
sS'Blood uric acid increased'
p1965
g3
((lp1966
g57
ag485
ag486
ag90
ag242
ag46
ag442
ag487
ag8
ag488
ag23
ag77
ag47
ag134
ag277
ag76
ag489
ag26
ag490
atRp1967
sS'Oliguria'
p1968
g3
((lp1969
g5
ag240
ag111
ag119
ag125
ag107
ag89
atRp1970
sS'Nausea'
p1971
g3
((lp1972
g23
atRp1973
sS'Mental disability'
p1974
g3
((lp1975
g412
ag90
ag389
ag218
ag33
ag399
ag390
ag391
ag392
ag393
ag413
ag395
ag396
ag397
ag398
ag385
ag400
ag178
ag22
ag403
ag65
ag64
ag404
ag24
ag20
ag32
ag405
ag408
ag6
ag89
ag23
ag394
ag506
ag21
ag14
ag26
ag27
atRp1976
sS'Shock'
p1977
g3
((lp1978
g240
ag58
ag234
ag112
ag22
ag116
ag119
ag65
ag63
ag64
ag123
ag24
ag20
ag32
ag324
ag21
ag6
ag124
ag23
ag48
ag26
ag27
atRp1979
sS'Hypertrichosis'
p1980
g3
((lp1981
g552
ag52
ag381
ag53
atRp1982
sS'Neuromyopathy'
p1983
g3
((lp1984
g1188
atRp1985
sS'Diplopia'
p1986
g3
((lp1987
g396
ag8
ag240
ag218
ag33
ag23
ag25
ag390
ag391
ag58
ag392
ag393
ag413
ag395
ag288
ag111
ag398
ag399
ag400
ag649
ag841
ag219
ag389
ag28
ag318
ag223
ag397
ag404
ag20
ag32
ag405
ag408
ag409
ag6
ag124
ag412
ag22
ag394
ag506
ag48
ag410
ag21
ag26
ag27
atRp1988
sS'Genital discharge'
p1989
g3
((lp1990
g381
ag306
atRp1991
sS'Hepatic failure'
p1992
g3
((lp1993
g8
ag125
ag107
ag12
ag111
ag47
ag76
ag22
ag15
ag223
ag119
ag20
ag21
ag6
ag11
ag9
ag23
ag463
ag74
ag13
ag69
ag26
ag27
atRp1994
sS'Major depression'
p1995
g3
((lp1996
g62
ag33
ag22
ag34
ag35
atRp1997
sS'Breast pain'
p1998
g3
((lp1999
g19
ag22
ag381
ag23
ag108
ag306
ag27
atRp2000
sS'Conjunctival haemorrhage'
p2001
g3
((lp2002
g57
ag46
atRp2003
sS'Phlebitis'
p2004
g3
((lp2005
g32
ag8
atRp2006
sS'Tenderness'
p2007
g3
((lp2008
g20
ag58
ag234
ag303
ag305
ag26
aS'1553'
p2009
ag385
ag289
ag23
ag124
ag1766
ag306
ag5
atRp2010
sS'Menstrual disorder'
p2011
g3
((lp2012
g19
ag21
ag23
ag22
ag33
ag64
ag27
atRp2013
sS'Uterine spasm'
p2014
g3
((lp2015
g33
ag34
atRp2016
sS'Blood thyroid stimulating hormone increased'
p2017
g3
((lp2018
g20
ag286
ag287
ag290
ag46
ag292
ag47
ag74
ag44
ag69
atRp2019
sS'Glycosuria'
p2020
g3
((lp2021
g19
ag60
ag58
ag486
ag15
ag59
ag110
ag162
ag163
ag52
ag488
ag62
ag64
ag103
ag164
atRp2022
sS'Autoimmune haemolytic anaemia'
p2023
g3
((lp2024
g76
ag490
ag489
atRp2025
sS'Meningitis'
p2026
g3
((lp2027
g189
ag107
ag111
atRp2028
sS'Dysphagia'
p2029
g3
((lp2030
g81
ag44
ag25
ag19
ag60
ag58
ag234
ag59
ag110
ag8
ag47
ag22
ag650
ag148
ag121
ag62
ag65
ag64
ag20
ag21
ag23
ag48
ag26
ag27
atRp2031
sS'Flank pain'
p2032
g3
((lp2033
g26
atRp2034
sS'Vulvovaginal candidiasis'
p2035
g3
((lp2036
g8
ag306
atRp2037
sS'Pneumonia'
p2038
g3
((lp2039
g20
ag134
ag21
ag46
ag6
ag8
ag119
ag23
ag77
ag47
ag26
ag27
atRp2040
sS"Parkinson's disease"
p2041
g3
((lp2042
g19
ag60
ag113
ag103
ag59
ag110
ag117
ag118
ag147
ag115
ag120
ag108
ag121
ag403
ag62
ag65
ag63
ag64
ag146
ag24
atRp2043
sS'Duodenitis'
p2044
g3
((lp2045
g25
atRp2046
sS'Facial spasm'
p2047
g3
((lp2048
g82
ag120
atRp2049
sS'Leukocytosis'
p2050
g3
((lp2051
g59
atRp2052
sS'Abnormal faeces'
p2053
g3
((lp2054
g6
ag25
atRp2055
sS'Urine output increased'
p2056
g3
((lp2057
g20
ag324
ag21
ag6
ag22
ag121
ag64
ag26
ag27
atRp2058
sS'Anal abscess'
p2059
g3
((lp2060
g46
atRp2061
sS'Drug interaction'
p2062
g3
((lp2063
g20
ag21
ag6
ag124
ag223
ag1093
ag22
ag47
ag23
ag297
ag74
ag296
ag26
ag27
atRp2064
sS'Ulcer'
p2065
g3
((lp2066
g5
ag70
ag6
ag71
ag8
ag23
ag77
ag47
ag107
ag75
ag487
atRp2067
sS'Retinal vascular thrombosis'
p2068
g3
((lp2069
g5
ag185
ag655
ag305
ag306
ag591
atRp2070
sS'Dysuria'
p2071
g3
((lp2072
g27
atRp2073
sS'Craniosynostosis'
p2074
g3
((lp2075
g591
ag1446
ag1445
ag1834
ag1165
ag1835
atRp2076
sS'Dementia'
p2077
g3
((lp2078
g19
ag60
ag58
ag301
ag146
ag6
ag22
ag316
ag147
ag662
ag103
ag24
ag47
ag121
ag403
ag62
ag64
ag305
ag306
ag27
atRp2079
sS'Posture abnormal'
p2080
g3
((lp2081
g19
ag60
ag147
ag103
ag59
ag64
ag24
atRp2082
sS'Renal tubular necrosis'
p2083
g3
((lp2084
g548
ag90
ag242
ag547
ag240
ag119
ag241
ag89
atRp2085
sS'Eye injury'
p2086
g3
((lp2087
g33
ag34
atRp2088
sS'Somnambulism'
p2089
g3
((lp2090
g19
ag60
ag113
ag103
ag404
ag59
ag408
ag146
ag389
ag147
ag112
ag108
ag121
ag62
ag65
ag63
ag64
ag20
ag123
ag24
ag405
atRp2091
sS'Yawning'
p2092
g3
((lp2093
g32
ag64
ag297
ag403
ag33
ag34
ag178
ag296
ag65
ag22
atRp2094
sS'Joint injury'
p2095
g3
((lp2096
g34
ag35
atRp2097
sS'VIIth nerve paralysis'
p2098
g3
((lp2099
g276
atRp2100
sS'Hypertriglyceridaemia'
p2101
g3
((lp2102
g20
ag6
ag26
ag23
ag22
ag367
ag27
atRp2103
sS'Cholestasis'
p2104
g3
((lp2105
g205
ag206
ag15
aS'1080'
p2106
atRp2107
sS'Coronary artery thrombosis'
p2108
g3
((lp2109
g185
ag319
ag306
ag305
atRp2110
sS'Acute hepatic failure'
p2111
g3
((lp2112
g23
atRp2113
sS'Nasal septum perforation'
p2114
g3
((lp2115
g52
ag53
atRp2116
sS'Accommodation disorder'
p2117
g3
((lp2118
g81
ag145
ag103
ag543
ag146
ag313
ag314
ag33
ag34
ag35
ag19
ag60
ag113
ag110
ag112
ag108
ag22
ag114
ag115
ag116
ag117
ag118
ag148
ag120
ag403
ag62
ag65
ag63
ag64
ag82
ag123
ag24
ag21
ag23
ag26
atRp2119
sS'Fracture'
p2120
g3
((lp2121
g25
ag27
ag21
atRp2122
sS'Myopathy'
p2123
g3
((lp2124
g20
ag32
ag21
ag1175
ag1176
ag316
ag22
ag23
ag6
ag47
ag121
ag276
ag124
ag236
ag26
ag27
ag74
atRp2125
sS'Tachycardia'
p2126
g3
((lp2127
g81
ag145
ag103
ag903
ag146
ag902
ag105
ag33
ag34
ag35
ag19
ag60
ag58
ag59
ag110
ag112
ag108
ag178
ag296
ag22
ag317
ag115
ag147
ag319
ag117
ag118
ag148
ag113
ag120
ag121
ag403
ag62
ag114
ag63
ag64
ag82
ag123
ag24
ag20
ag324
ag21
ag6
ag23
ag65
ag14
ag26
ag27
atRp2128
sS'Prostatic disorder'
p2129
g3
((lp2130
g22
atRp2131
sS'Priapism'
p2132
g3
((lp2133
g81
ag145
ag301
ag146
ag147
ag104
ag103
ag33
ag19
ag60
ag58
ag303
ag59
ag110
ag268
ag112
ag108
ag117
ag179
ag227
ag114
ag115
ag650
ag267
ag116
aS'90134'
p2134
ag118
ag148
ag113
ag120
ag121
ag62
ag65
ag63
ag64
ag82
ag123
ag24
ag21
ag22
aS'81033'
p2135
ag848
atRp2136
sS'Miosis'
p2137
g3
((lp2138
g114
ag115
ag104
ag297
ag120
ag178
ag296
ag22
atRp2139
sS'Transient global amnesia'
p2140
g3
((lp2141
g227
ag267
ag268
atRp2142
sS'Eyelash discolouration'
p2143
g3
((lp2144
g420
atRp2145
sS'Muscle swelling'
p2146
g3
((lp2147
g193
ag655
ag276
atRp2148
sS'Hostility'
p2149
g3
((lp2150
g389
ag82
ag218
ag33
ag23
ag34
ag35
ag1357
ag108
ag390
ag391
ag113
ag392
ag393
ag394
ag395
ag396
ag397
ag398
ag399
ag400
ag219
ag19
ag650
ag60
ag121
ag62
ag63
ag64
ag1124
ag404
ag123
ag24
ag20
ag32
ag405
ag408
ag112
ag124
ag412
ag6
ag413
ag21
ag26
ag27
atRp2151
sS'Tongue disorder'
p2152
g3
((lp2153
g81
ag19
ag58
ag21
ag60
ag22
ag148
ag113
ag24
ag121
ag62
ag33
ag63
ag64
ag27
atRp2154
sS'Hepatosplenic T-cell lymphoma'
p2155
g3
((lp2156
g679
ag1003
atRp2157
sS'Breast tenderness'
p2158
g3
((lp2159
g302
ag234
ag185
ag381
ag179
ag1766
ag306
ag27
atRp2160
sS'Blindness cortical'
p2161
g3
((lp2162
g610
ag485
ag616
ag77
ag606
ag23
ag611
ag47
ag621
ag607
ag608
ag74
ag75
ag612
ag605
ag442
ag620
ag613
aS'4353'
p2163
atRp2164
sS'Abnormal dreams'
p2165
g3
((lp2166
g20
ag58
ag21
ag6
ag23
ag22
ag33
ag27
atRp2167
sS'Antinuclear antibody positive'
p2168
g3
((lp2169
g206
ag177
atRp2170
sS'Tremor'
p2171
g3
((lp2172
g81
ag103
ag389
ag105
ag33
ag34
ag35
ag19
ag60
ag58
ag539
ag110
ag111
ag112
ag108
ag178
ag296
ag219
ag240
ag115
ag117
ag118
ag223
aS'4129'
p2173
ag120
ag121
ag62
ag65
ag63
ag64
ag82
ag123
ag24
ag20
ag32
ag21
ag6
ag89
ag23
ag22
ag463
ag48
ag124
ag26
ag27
atRp2174
sS'Bone disorder'
p2175
g3
((lp2176
g47
ag27
atRp2177
sS'Local reaction'
p2178
g3
((lp2179
g8
atRp2180
sS'Loss of consciousness'
p2181
g3
((lp2182
g103
ag240
ag33
ag19
ag60
ag58
ag177
ag111
ag112
ag108
ag178
ag296
ag22
ag114
ag115
ag116
ag113
ag119
ag62
ag65
ag63
ag64
ag123
ag24
ag20
ag32
ag324
ag21
ag6
ag124
ag23
ag48
ag26
ag27
atRp2183
sS'Seborrhoeic dermatitis'
p2184
g3
((lp2185
g19
ag60
ag113
ag103
ag70
ag59
ag110
ag22
ag23
ag24
ag47
ag121
ag62
ag64
ag179
ag26
ag27
atRp2186
sS'Cheyne-Stokes respiration'
p2187
g3
((lp2188
g296
ag297
ag178
atRp2189
sS'Hyperkinesia'
p2190
g3
((lp2191
g81
ag145
ag103
ag33
ag34
ag19
ag60
ag58
ag59
ag110
ag385
ag108
ag178
ag219
ag22
ag117
ag118
ag148
ag121
ag62
ag65
ag63
ag64
ag82
ag404
ag24
ag20
ag32
ag407
ag21
ag124
ag411
ag23
ag26
ag27
atRp2192
sS'Anxiety'
p2193
g3
((lp2194
g20
ag58
ag234
ag21
ag124
ag6
ag123
ag64
ag119
ag385
ag24
ag23
ag62
ag33
ag63
ag34
ag35
ag65
ag26
ag27
ag22
atRp2195
sS'Blindness unilateral'
p2196
g3
((lp2197
g317
ag315
ag320
ag324
ag325
atRp2198
sS'Anaphylactic shock'
p2199
g3
((lp2200
g58
ag323
ag5
ag70
ag205
ag206
ag8
ag119
ag23
ag321
ag47
ag6
ag125
ag107
ag608
ag74
ag124
ag236
ag26
ag1470
ag15
atRp2201
sS'Blood gastrin increased'
p2202
g3
((lp2203
g25
atRp2204
sS'Genital pain'
p2205
g3
((lp2206
g33
ag34
ag35
atRp2207
sS'Completed suicide'
p2208
g3
((lp2209
g19
ag60
ag110
ag22
ag64
ag120
ag24
ag121
ag33
ag63
ag34
ag35
ag82
ag123
ag27
atRp2210
sS'Tendonitis'
p2211
g3
((lp2212
g8
atRp2213
sS'Prostatitis'
p2214
g3
((lp2215
g33
ag34
atRp2216
sS'Dysphoria'
p2217
g3
((lp2218
g34
ag178
ag297
ag33
ag35
ag296
ag22
atRp2219
sS'Carbohydrate tolerance decreased'
p2220
g3
((lp2221
g552
ag185
ag316
ag52
ag23
atRp2222
sS'Nocturia'
p2223
g3
((lp2224
g20
ag315
ag324
ag21
ag325
ag6
ag23
ag22
ag33
ag26
ag27
atRp2225
sS'Inflammatory bowel disease'
p2226
g3
((lp2227
g679
ag1003
atRp2228
sS'Glucose tolerance decreased'
p2229
g3
((lp2230
g305
ag306
atRp2231
sS'Medication overuse headache'
p2232
g3
((lp2233
g538
ag539
ag65
ag63
ag64
atRp2234
sS'Skin cancer'
p2235
g3
((lp2236
g547
atRp2237
sS'Water intoxication'
p2238
g3
((lp2239
g19
ag60
ag147
ag103
ag59
ag110
ag146
ag120
ag121
ag115
ag62
ag63
ag64
ag82
ag24
atRp2240
sS'Mental disorder'
p2241
g3
((lp2242
g19
ag20
ag23
ag22
ag26
ag27
atRp2243
sS'Sudden hearing loss'
p2244
g3
((lp2245
g227
ag267
ag268
atRp2246
sS'Dizziness'
p2247
g3
((lp2248
g20
ag58
ag21
ag6
ag119
ag23
ag22
ag26
ag27
atRp2249
sS'Laryngitis'
p2250
g3
((lp2251
g58
ag33
ag27
ag22
atRp2252
sS'Pulmonary eosinophilia'
p2253
g3
((lp2254
g205
ag206
ag1584
ag177
atRp2255
sS'Corneal lesion'
p2256
g3
((lp2257
g33
atRp2258
sS'Optic neuritis'
p2259
g3
((lp2260
g57
ag485
ag234
ag185
ag52
ag23
ag47
ag662
ag306
atRp2261
sS'Bacteraemia'
p2262
g3
((lp2263
g134
ag489
atRp2264
sS'Albuminuria'
p2265
g3
((lp2266
g6
ag25
ag8
ag27
atRp2267
sS'Breast feeding'
p2268
g3
((lp2269
g22
atRp2270
sS'Alveolar proteinosis'
p2271
g3
((lp2272
g548
atRp2273
sS'Mitral valve incompetence'
p2274
g3
((lp2275
g59
ag110
atRp2276
sS'Enuresis'
p2277
g3
((lp2278
g147
ag145
ag103
ag146
ag19
ag60
ag59
ag110
ag112
ag108
ag115
ag117
ag118
ag148
ag120
ag121
ag62
ag65
ag63
ag64
ag82
ag123
ag24
ag20
ag841
ag1963
ag26
ag27
atRp2279
sS'Respiratory depression'
p2280
g3
((lp2281
g288
ag5
ag240
ag125
ag218
ag12
ag628
ag393
ag413
ag396
ag111
ag10
ag297
ag178
ag296
ag219
ag404
ag13
ag32
ag11
ag9
ag7
ag14
atRp2282
sS'Skin hypertrophy'
p2283
g3
((lp2284
g6
ag22
ag21
atRp2285
sS'Uterine leiomyoma'
p2286
g3
((lp2287
g58
ag234
ag381
ag33
ag305
ag306
atRp2288
sS'Nail disorder'
p2289
g3
((lp2290
g20
ag44
ag234
ag303
ag70
ag116
ag304
ag963
ag46
ag23
ag77
ag47
ag6
ag289
ag124
ag194
ag26
ag27
ag109
atRp2291
sS'Volume blood increased'
p2292
g3
((lp2293
g156
atRp2294
sS'Flushing'
p2295
g3
((lp2296
g22
ag23
atRp2297
sS'Neurological symptom'
p2298
g3
((lp2299
g610
ag616
ag606
ag189
ag611
ag607
ag612
ag605
ag442
ag620
ag613
ag621
atRp2300
sS'Muscle relaxant therapy'
p2301
g3
((lp2302
g19
ag60
ag113
ag103
ag32
ag20
ag59
ag110
ag146
ag389
ag64
ag147
ag235
ag27
ag649
ag62
ag48
ag178
ag669
ag24
ag22
atRp2303
sS'Deafness'
p2304
g3
((lp2305
g90
ag5
ag70
ag291
ag125
ag107
ag109
ag134
ag316
ag111
ag47
ag846
ag15
ag77
ag323
ag20
ag32
ag21
ag6
ag124
ag23
ag74
ag26
ag1470
atRp2306
sS'Anger'
p2307
g3
((lp2308
g389
ag218
ag33
ag34
ag35
ag390
ag391
ag392
ag393
ag413
ag395
ag396
ag397
ag398
ag399
ag400
ag840
ag20
ag404
ag405
ag408
ag409
ag394
ag410
ag412
ag14
ag26
ag27
atRp2309
sS'Hepatitis cholestatic'
p2310
g3
((lp2311
g6
ag180
atRp2312
sS'Akinesia'
p2313
g3
((lp2314
g81
ag145
ag103
ag146
ag105
ag19
ag60
ag58
ag59
ag110
ag211
ag112
ag108
ag22
ag115
ag147
ag117
ag118
ag148
ag113
ag120
ag121
ag62
ag65
ag63
ag64
ag82
ag123
ag24
ag20
ag21
ag23
atRp2315
sS'Generalised erythema'
p2316
g3
((lp2317
g47
atRp2318
sS'Vaginal inflammation'
p2319
g3
((lp2320
g25
ag306
ag27
atRp2321
sS'Pulmonary embolism'
p2322
g3
((lp2323
g19
ag60
ag234
ag306
ag301
aS'5739'
p2324
ag235
ag23
ag47
ag121
ag64
ag20
ag305
ag26
ag27
atRp2325
sS'Buccoglossal syndrome'
p2326
g3
((lp2327
g81
ag145
ag103
ag146
ag19
ag60
ag113
ag59
ag110
ag112
ag108
ag22
ag115
ag147
ag117
ag118
ag148
ag120
ag121
ag62
ag65
ag63
ag64
ag82
ag123
ag24
atRp2328
sS'Sexual dysfunction'
p2329
g3
((lp2330
g20
ag324
ag23
ag22
ag33
ag34
ag26
ag27
atRp2331
sS'Gravitational oedema'
p2332
g3
((lp2333
g403
atRp2334
sS'Dry mouth'
p2335
g3
((lp2336
g81
ag145
ag103
ag146
ag389
ag147
ag105
ag33
ag34
ag35
ag108
ag19
ag60
ag58
ag59
ag110
ag111
ag112
ag113
ag178
ag296
ag240
ag114
ag115
ag650
ag116
ag117
ag118
ag148
ag223
ag119
ag120
ag403
ag62
ag65
ag63
ag64
ag82
ag123
ag24
ag20
ag32
ag21
ag6
ag23
ag22
ag149
ag26
ag27
atRp2337
sS'Haematospermia'
p2338
g3
((lp2339
g227
ag267
ag268
atRp2340
sS'Epistaxis'
p2341
g3
((lp2342
g20
ag5
ag21
ag46
ag6
ag124
ag462
ag23
ag22
ag47
ag64
ag26
ag27
ag109
atRp2343
sS'Faecalith'
p2344
g3
((lp2345
g81
ag145
ag103
ag146
ag19
ag60
ag59
ag110
ag112
ag108
ag297
ag178
ag296
ag22
ag147
ag117
ag118
ag148
ag121
ag62
ag65
ag64
ag123
ag24
ag506
atRp2346
sS'Gastrointestinal pain'
p2347
g3
((lp2348
g20
ag70
ag205
ag8
ag111
ag22
ag47
ag6
ag124
ag26
ag27
atRp2349
sS'Neoplasm'
p2350
g3
((lp2351
g44
ag70
ag46
ag47
ag179
ag306
ag27
atRp2352
sS'Inflammation'
p2353
g3
((lp2354
g47
atRp2355
sS'Respiratory paralysis'
p2356
g3
((lp2357
g189
atRp2358
sS'Conduction disorder'
p2359
g3
((lp2360
g114
ag145
ag103
ag110
ag116
ag117
ag118
ag148
ag314
ag115
ag1167
ag22
ag23
ag112
ag62
ag120
ag34
ag82
ag24
ag313
ag63
atRp2361
sS'Contact lens intolerance'
p2362
g3
((lp2363
g306
atRp2364
sS'Opportunistic infection'
p2365
g3
((lp2366
g134
ag70
ag316
ag489
ag47
ag74
ag27
atRp2367
sS'Restless legs syndrome'
p2368
g3
((lp2369
g81
ag147
ag103
ag146
ag33
ag34
ag35
ag108
ag19
ag57
ag58
ag59
ag110
ag46
ag112
aS'4544'
p2370
ag22
ag115
ag60
ag117
ag118
ag113
ag120
ag121
ag62
ag63
ag64
ag82
aS'4543'
p2371
ag123
ag24
ag20
ag26
ag27
atRp2372
sS'Alcoholism'
p2373
g3
((lp2374
g296
ag297
ag178
atRp2375
sS'Blood parathyroid hormone increased'
p2376
g3
((lp2377
g138
atRp2378
sS'Tension'
p2379
g3
((lp2380
g81
ag389
ag125
ag218
ag33
ag23
ag34
ag35
ag1357
ag390
ag391
ag58
ag177
ag392
ag394
ag395
ag397
ag398
ag399
ag400
ag22
ag120
ag82
ag405
ag404
ag324
ag408
ag6
ag124
ag412
ag463
ag413
ag21
ag26
ag27
atRp2381
sS'Gastrointestinal toxicity'
p2382
g3
((lp2383
g70
ag8
ag616
ag613
ag77
atRp2384
sS'Pancytopenia'
p2385
g3
((lp2386
g40
ag70
ag125
ag107
ag25
ag605
ag485
ag134
ag8
ag73
ag47
ag75
ag76
ag15
ag304
ag58
ag77
ag442
ag21
ag205
ag206
ag23
ag6
ag74
atRp2387
sS'Tinnitus'
p2388
g3
((lp2389
g103
ag125
ag107
ag33
ag58
ag112
ag219
ag22
ag116
ag62
ag65
ag63
ag64
ag82
ag24
ag20
ag32
ag21
ag6
ag124
ag23
ag48
ag26
ag27
atRp2390
sS'Electrocardiogram change'
p2391
g3
((lp2392
g19
ag60
ag147
ag103
ag110
ag112
ag105
ag121
ag63
ag64
ag23
ag123
ag24
atRp2393
sS'Insomnia'
p2394
g3
((lp2395
g19
ag20
ag58
ag94
ag21
ag110
ag6
ag124
ag64
ag22
ag23
ag24
ag115
ag62
ag33
ag34
ag35
ag65
ag26
ag27
atRp2396
sS'Anorgasmia'
p2397
g3
((lp2398
g19
ag60
ag103
ag59
ag120
ag22
ag62
ag33
ag63
ag34
ag64
ag82
ag20
ag26
ag27
atRp2399
sS'Malaise'
p2400
g3
((lp2401
g20
ag21
ag124
ag6
ag111
ag223
ag119
ag385
ag22
ag47
ag23
ag8
ag26
ag27
atRp2402
sS'Urinary retention'
p2403
g3
((lp2404
g81
ag145
ag103
ag563
ag313
ag314
ag105
ag33
ag34
ag35
ag19
ag60
ag58
ag59
ag110
ag112
ag108
ag649
ag297
ag178
ag296
ag219
ag22
ag114
ag115
ag147
ag116
ag117
ag118
ag148
ag113
ag120
ag121
ag62
ag63
ag64
ag82
ag146
ag562
ag123
ag24
ag20
ag32
ag21
ag89
ag23
ag48
ag26
ag27
atRp2405
sS'Fibrocystic breast disease'
p2406
g3
((lp2407
g6
ag655
ag306
atRp2408
sS'Ileitis'
p2409
g3
((lp2410
g32
ag33
ag22
ag34
ag35
atRp2411
sS'Endometrial cancer'
p2412
g3
((lp2413
g302
ag234
ag381
ag305
ag306
ag27
atRp2414
sS'Cough'
p2415
g3
((lp2416
g20
ag134
ag177
ag6
ag124
ag119
ag23
ag22
ag47
ag26
ag27
atRp2417
sS'Panic reaction'
p2418
g3
((lp2419
g33
ag34
ag35
atRp2420
sS'Respiratory arrest'
p2421
g3
((lp2422
g296
ag189
ag123
ag297
ag178
atRp2423
sS'Cardiac output decreased'
p2424
g3
((lp2425
g189
atRp2426
sS'Cyanopsia'
p2427
g3
((lp2428
g227
ag267
ag268
atRp2429
sS'Psoriasis'
p2430
g3
((lp2431
g22
atRp2432
sS'Hypogonadism'
p2433
g3
((lp2434
g296
ag297
ag178
atRp2435
sS'Blood glucose increased'
p2436
g3
((lp2437
g20
ag26
ag27
ag23
ag22
atRp2438
sS'Metabolic acidosis'
p2439
g3
((lp2440
g162
ag163
aS'766'
p2441
ag164
atRp2442
sS'Vasodilation procedure'
p2443
g3
((lp2444
g20
ag324
ag6
ag124
ag47
ag26
atRp2445
sS'Paralysis'
p2446
g3
((lp2447
g189
ag48
ag64
atRp2448
sS'Paraesthesia'
p2449
g3
((lp2450
g20
ag177
ag6
ag124
ag223
ag22
ag23
ag24
ag47
ag112
ag33
ag63
ag64
ag65
ag26
ag27
ag74
atRp2451
sS'Neuromuscular block prolonged'
p2452
g3
((lp2453
g1648
atRp2454
sS'Vulvovaginal pruritus'
p2455
g3
((lp2456
g234
ag306
ag305
atRp2457
sS'X-linked lymphoproliferative syndrome'
p2458
g3
((lp2459
g548
ag90
ag242
ag547
ag241
ag89
atRp2460
sS'Nasal congestion'
p2461
g3
((lp2462
g81
ag147
ag103
ag146
ag105
ag19
ag60
ag113
ag59
ag110
ag112
ag108
ag114
ag115
ag148
ag120
ag62
ag63
ag64
ag82
ag24
ag149
atRp2463
sS'Diplegia'
p2464
g3
((lp2465
g316
ag52
atRp2466
sS'Hearing impaired'
p2467
g3
((lp2468
g20
ag134
ag5
ag6
ag321
ag47
ag125
ag107
ag323
ag487
ag26
ag1470
ag15
atRp2469
sS'Albinism'
p2470
g3
((lp2471
g19
ag60
ag147
ag103
ag59
ag64
ag24
atRp2472
sS'Mania'
p2473
g3
((lp2474
g81
ag145
ag103
ag146
ag33
ag34
ag35
ag1357
ag19
ag60
ag58
ag59
ag110
ag112
ag108
ag22
ag115
ag147
ag117
ag118
ag148
ag113
ag120
ag121
ag403
ag62
ag65
ag63
ag64
ag82
ag123
ag24
ag20
ag32
ag21
ag23
ag26
ag27
atRp2475
sS'Precocious puberty'
p2476
g3
((lp2477
g179
ag302
atRp2478
sS'Paronychia'
p2479
g3
((lp2480
g289
atRp2481
sS'Breath holding'
p2482
g3
((lp2483
g5
ag7
ag9
ag10
ag218
ag11
ag12
ag13
atRp2484
sS'Micturition disorder'
p2485
g3
((lp2486
g81
ag32
ag33
ag22
ag116
atRp2487
sS'Dyspnoea exertional'
p2488
g3
((lp2489
g281
ag46
ag282
atRp2490
sS'Musculoskeletal pain'
p2491
g3
((lp2492
g20
ag57
ag46
ag138
ag23
ag47
ag276
ag126
ag26
ag27
atRp2493
sS'Rhinitis'
p2494
g3
((lp2495
g177
ag6
ag124
ag23
ag47
ag277
ag26
ag27
atRp2496
sS"Barrett's oesophagus"
p2497
g3
((lp2498
g25
atRp2499
sS'Cardiovascular insufficiency'
p2500
g3
((lp2501
g296
ag288
ag297
ag178
atRp2502
sS'Hypertension'
p2503
g3
((lp2504
g147
ag146
ag103
ag240
ag105
ag33
ag34
ag35
ag108
ag19
ag60
ag58
ag234
ag59
ag110
ag112
ag113
ag47
ag22
ag114
ag115
ag116
ag117
ag2173
ag120
ag77
ag62
ag63
ag64
ag123
ag24
ag20
ag21
ag6
ag124
ag23
ag26
ag27
atRp2505
sS'Aggression'
p2506
g3
((lp2507
g147
ag146
ag103
ag115
ag389
ag218
ag33
ag34
ag35
ag108
ag390
ag391
ag58
ag59
ag392
ag393
ag413
ag395
ag396
ag397
ag398
ag399
ag400
ag22
ag19
ag60
ag113
ag120
ag62
ag65
ag63
ag64
ag404
ag24
ag32
ag405
ag408
ag409
ag394
ag410
ag110
ag412
ag21
ag26
ag27
atRp2508
sS'Acute phase reaction'
p2509
g3
((lp2510
g138
atRp2511
sS'Cushingoid'
p2512
g3
((lp2513
g552
ag52
aS'190'
p2514
atRp2515
sS'Upper respiratory tract infection'
p2516
g3
((lp2517
g47
ag22
ag27
ag277
atRp2518
sS'Phlebitis superficial'
p2519
g3
((lp2520
g916
atRp2521
sS'Hyperreflexia'
p2522
g3
((lp2523
g19
ag60
ag650
ag59
ag110
ag651
ag22
ag120
ag24
ag62
ag33
ag64
ag1963
ag27
atRp2524
sS'Terminal insomnia'
p2525
g3
((lp2526
g33
ag34
ag35
atRp2527
sS'Head titubation'
p2528
g3
((lp2529
g19
ag60
ag147
ag103
ag59
ag64
ag24
atRp2530
sS'Electrocardiogram QT prolonged'
p2531
g3
((lp2532
g81
ag145
ag103
ag146
ag33
ag19
ag60
ag58
ag59
ag110
ag112
ag108
ag22
ag115
ag147
ag46
ag117
ag118
ag148
ag113
ag120
ag121
ag62
ag65
ag63
ag64
ag82
ag123
ag24
ag20
ag21
ag23
ag26
ag27
atRp2533
sS'Mouth injury'
p2534
g3
((lp2535
g81
ag82
ag34
ag120
ag35
atRp2536
sS'Thrombophlebitis'
p2537
g3
((lp2538
g47
ag121
ag23
atRp2539
sS'Jaundice cholestatic'
p2540
g3
((lp2541
g40
ag855
ag856
ag5
ag177
ag6
ag206
ag163
ag488
ag655
ag276
ag179
ag185
ag306
ag164
ag15
atRp2542
sS'Laryngeal oedema'
p2543
g3
((lp2544
g205
ag206
ag189
ag177
atRp2545
sS'Infertility'
p2546
g3
((lp2547
g1834
ag1835
atRp2548
sS'Alveolar osteitis'
p2549
g3
((lp2550
g107
atRp2551
sS'Liver function test abnormal'
p2552
g3
((lp2553
g20
ag47
ag26
ag27
ag23
atRp2554
sS'Hangover'
p2555
g3
((lp2556
g390
ag391
ag404
ag405
ag408
ag392
ag393
ag410
ag389
ag396
ag397
ag398
ag399
ag400
ag394
ag218
ag412
ag413
ag409
ag395
atRp2557
sS'Neurosis'
p2558
g3
((lp2559
g33
ag22
atRp2560
sS'Sleep disorder'
p2561
g3
((lp2562
g94
ag389
ag21
ag33
ag412
ag25
ag390
ag391
ag58
ag539
ag392
ag393
ag413
ag395
ag397
ag398
ag399
ag400
ag22
ag65
ag63
ag64
ag20
ag32
ag405
ag408
ag6
ag23
ag26
ag27
atRp2563
sS'Tooth disorder'
p2564
g3
((lp2565
g27
atRp2566
sS'Risus sardonicus'
p2567
g3
((lp2568
g19
ag60
ag147
ag103
ag59
ag64
ag24
atRp2569
sS'Rectal haemorrhage'
p2570
g3
((lp2571
g21
ag6
ag124
ag111
ag23
ag47
ag121
ag125
ag107
ag27
ag109
atRp2572
sS'Cerebral thrombosis'
p2573
g3
((lp2574
g8
ag381
atRp2575
sS'Endocarditis'
p2576
g3
((lp2577
g90
atRp2578
sS'Urethral obstruction'
p2579
g3
((lp2580
S'11194'
p2581
aS'10327'
p2582
aS'874'
p2583
aS'4720'
p2584
aS'4722'
p2585
aS'374291'
p2586
aS'4842'
p2587
atRp2588
sS'Stevens-Johnson syndrome'
p2589
g3
((lp2590
g20
ag109
ag323
ag5
ag21
ag6
ag206
ag23
ag321
ag47
ag125
ag107
ag74
ag70
ag124
ag26
ag27
ag1470
ag15
atRp2591
sS'Leukoderma'
p2592
g3
((lp2593
g552
ag52
ag53
atRp2594
sS'Dysmenorrhoea'
p2595
g3
((lp2596
g19
ag60
ag58
ag59
ag64
ag24
ag121
ag65
ag33
ag35
ag25
ag306
ag27
atRp2597
sS'Respiratory moniliasis'
p2598
g3
((lp2599
g89
ag241
ag90
ag242
atRp2600
sS'Erythema multiforme'
p2601
g3
((lp2602
g5
ag70
ag125
ag107
ag109
ag58
ag303
ag1168
ag316
ag47
ag608
ag15
ag46
ag119
ag321
ag323
ag20
ag32
ag21
ag6
ag206
ag23
ag205
ag74
ag124
ag26
ag27
ag1470
atRp2603
sS'Hepatic neoplasm'
p2604
g3
((lp2605
g179
ag185
ag306
ag381
atRp2606
sS'Pain'
p2607
g3
((lp2608
g20
ag134
ag70
ag6
ag119
ag23
ag77
ag47
ag74
ag26
ag27
atRp2609
sS'Skin exfoliation'
p2610
g3
((lp2611
g44
ag47
ag46
ag77
atRp2612
sS'Peliosis hepatis'
p2613
g3
((lp2614
g679
ag302
ag306
ag185
ag179
atRp2615
sS'Serum sickness'
p2616
g3
((lp2617
g205
ag206
ag15
atRp2618
sS'Breast cancer'
p2619
g3
((lp2620
g381
ag1766
ag306
ag305
atRp2621
sS'Oropharyngeal discomfort'
p2622
g3
((lp2623
g45
ag94
ag22
atRp2624
sS'Erythrosis'
p2625
g3
((lp2626
g513
ag514
ag515
ag516
ag517
ag518
ag519
atRp2627
sS'Infection'
p2628
g3
((lp2629
g234
ag6
ag124
ag52
ag119
ag77
ag47
ag134
ag26
ag27
atRp2630
sS'Hypochloraemia'
p2631
g3
((lp2632
g241
ag90
ag242
atRp2633
sS'Urinary tract infection'
p2634
g3
((lp2635
g6
ag27
atRp2636
sS'Cyanosis'
p2637
g3
((lp2638
g20
ag60
ag121
ag65
ag63
ag64
ag26
ag48
atRp2639
sS'Foetal disorder'
p2640
g3
((lp2641
g562
ag563
atRp2642
sS'Myocardial ischaemia'
p2643
g3
((lp2644
g65
ag64
atRp2645
sS'Functional gastrointestinal disorder'
p2646
g3
((lp2647
g22
atRp2648
sS'Bradycardia'
p2649
g3
((lp2650
g147
ag146
ag45
ag103
ag94
aS'43'
p2651
ag178
ag296
ag219
ag22
ag317
ag315
ag320
ag120
ag538
ag65
ag63
ag64
ag123
ag20
ag32
ag325
ag23
ag181
ag48
ag26
atRp2652
sS'Ejaculation failure'
p2653
g3
((lp2654
g33
ag34
ag120
ag22
atRp2655
sS'Hypercholesterolaemia'
p2656
g3
((lp2657
g6
ag27
ag22
atRp2658
sS'Sudden cardiac death'
p2659
g3
((lp2660
g227
ag267
ag268
atRp2661
sS'Acute febrile neutrophilic dermatosis'
p2662
g3
((lp2663
g44
ag57
ag353
ag46
atRp2664
sS'Hyperkalaemia'
p2665
g3
((lp2666
g5
ag177
ag11
ag9
ag277
ag13
atRp2667
sS'Stroke volume increased'
p2668
g3
((lp2669
g1480
ag1481
ag1482
ag1483
ag1484
ag1485
ag1486
atRp2670
sS'Peripheral nerve palsy'
p2671
g3
((lp2672
g276
atRp2673
sS'Glaucoma'
p2674
g3
((lp2675
g81
ag146
ag113
ag103
ag21
ag59
ag110
ag22
ag52
ag53
ag62
ag33
ag34
ag35
ag25
ag27
atRp2676
sS'Skin depigmentation'
p2677
g3
((lp2678
g52
atRp2679
sS'Ophthalmoplegia'
p2680
g3
((lp2681
g236
ag276
atRp2682
sS'Purpura'
p2683
g3
((lp2684
g58
ag5
ag21
ag6
ag163
ag488
ag23
ag125
ag107
ag33
atRp2685
sS'Basal cell carcinoma'
p2686
g3
((lp2687
g547
ag548
atRp2688
sS'Chloasma'
p2689
g3
((lp2690
g381
ag185
ag305
ag306
atRp2691
sS'Transaminases increased'
p2692
g3
((lp2693
g236
ag26
ag74
ag276
atRp2694
sS'Electrolyte imbalance'
p2695
g3
((lp2696
g162
ag163
ag2441
ag164
ag15
atRp2697
sS'Delirium'
p2698
g3
((lp2699
g81
ag145
ag103
ag147
ag33
ag34
ag35
ag19
ag60
ag113
ag59
ag110
ag112
ag108
ag178
ag22
ag115
ag650
ag116
ag117
ag118
ag148
ag120
ag121
ag62
ag63
ag64
ag82
ag123
ag24
ag20
ag32
ag21
ag23
ag26
ag27
atRp2700
sS'Eye movement disorder'
p2701
g3
((lp2702
g19
ag60
ag147
ag103
ag59
ag115
ag62
ag63
ag64
ag24
atRp2703
sS'Visual impairment'
p2704
g3
((lp2705
g20
ag58
ag32
ag303
ag21
ag6
ag124
ag240
ag385
ag22
ag506
ag65
ag23
ag26
ag27
ag324
atRp2706
sS'Necrotising fasciitis'
p2707
g3
((lp2708
g15
ag1042
ag125
ag107
ag109
ag5
atRp2709
sS'Incisional hernia'
p2710
g3
((lp2711
g548
atRp2712
sS'Skin striae'
p2713
g3
((lp2714
g552
ag52
ag53
atRp2715
sS'Urinary incontinence'
p2716
g3
((lp2717
g19
ag60
ag147
ag103
ag90
ag20
ag59
ag32
ag123
ag389
ag22
ag120
ag24
ag121
ag62
ag146
ag63
ag64
ag23
ag26
ag27
atRp2718
sS'Dermatitis acneiform'
p2719
g3
((lp2720
g52
ag53
atRp2721
sS'Haemothorax'
p2722
g3
((lp2723
g462
atRp2724
sS'Amblyopia'
p2725
g3
((lp2726
g32
ag21
ag111
ag223
ag119
ag23
ag649
ag506
ag124
ag89
ag27
ag28
atRp2727
sS'Pleural effusion'
p2728
g3
((lp2729
g44
ag57
ag47
ag89
ag46
atRp2730
sS'Hepatotoxicity'
p2731
g3
((lp2732
g485
ag442
ag58
ag235
ag47
ag74
ag26
ag613
atRp2733
sS'Agitation'
p2734
g3
((lp2735
g81
ag145
ag103
ag34
ag115
ag389
ag35
ag60
ag218
ag33
ag385
ag903
ag902
ag23
ag1357
ag108
ag628
ag390
ag391
ag58
ag539
ag59
ag392
ag393
ag394
ag395
ag396
ag397
ag398
ag399
ag400
ag297
ag178
ag296
ag219
ag22
ag19
ag204
ag117
ag118
ag148
ag2173
ag120
ag121
ag62
ag65
ag63
ag64
ag82
ag404
ag123
ag24
ag20
ag32
ag405
ag408
ag409
ag112
ag89
ag146
ag110
ag412
ag6
ag413
ag410
ag21
ag14
ag26
ag27
atRp2736
sS'Post transplant lymphoproliferative disorder'
p2737
g3
((lp2738
g547
atRp2739
sS'Gastritis'
p2740
g3
((lp2741
g20
ag21
ag6
ag124
ag138
ag119
ag22
ag47
ag125
ag107
ag64
ag25
ag26
ag27
atRp2742
sS'Scleritis'
p2743
g3
((lp2744
g138
atRp2745
sS'Emotional distress'
p2746
g3
((lp2747
g111
atRp2748
sS'Bronchospasm'
p2749
g3
((lp2750
g45
ag94
atRp2751
sS'Schizophrenia'
p2752
g3
((lp2753
g552
ag52
ag23
atRp2754
sS'Bruxism'
p2755
g3
((lp2756
g33
ag22
ag34
ag35
atRp2757
sS'Haemorrhage in pregnancy'
p2758
g3
((lp2759
g189
atRp2760
sS'Ataxia'
p2761
g3
((lp2762
g81
ag103
ag397
ag389
ag60
ag218
ag33
ag385
ag34
ag23
ag108
ag390
ag391
ag58
ag392
ag393
ag394
ag395
ag396
ag8
ag398
ag399
ag400
ag22
ag401
ag116
ag117
ag118
ag402
ag113
ag121
ag403
ag62
ag65
ag63
ag64
ag82
ag404
ag123
ag24
ag405
ag20
ag32
ag407
ag408
ag409
ag112
ag651
ag110
ag411
ag412
ag6
ag413
ag48
ag410
ag21
ag14
ag26
ag27
atRp2763
sS'Sinus arrest'
p2764
g3
((lp2765
g1037
ag45
atRp2766
sS'Food poisoning'
p2767
g3
((lp2768
g34
atRp2769
sS'Femur fracture'
p2770
g3
((lp2771
g138
atRp2772
sS'Hypercapnia'
p2773
g3
((lp2774
g7
ag9
ag10
ag1956
ag11
ag12
ag13
atRp2775
sS'Oesophageal stenosis'
p2776
g3
((lp2777
g25
atRp2778
sS'Hepatic congestion'
p2779
g3
((lp2780
g712
ag713
ag714
ag715
ag716
ag717
atRp2781
sS'Respiratory distress'
p2782
g3
((lp2783
g45
ag94
atRp2784
sS'Septic shock'
p2785
g3
((lp2786
g47
ag8
atRp2787
sS'Asthma'
p2788
g3
((lp2789
g6
ag124
ag125
ag107
atRp2790
sS'Ventricular tachycardia'
p2791
g3
((lp2792
g81
ag145
ag103
ag146
ag313
ag314
ag104
ag33
ag968
ag19
ag60
ag58
ag59
ag110
ag301
ag112
ag108
ag22
ag115
ag116
ag117
ag118
ag148
ag120
ag62
ag65
ag63
ag64
ag82
ag24
ag20
ag32
ag21
ag23
ag26
ag27
atRp2793
sS'Progressive multifocal leukoencephalopathy'
p2794
g3
((lp2795
g90
ag242
ag547
ag489
ag241
ag89
atRp2796
sS'Pleurothotonus'
p2797
g3
((lp2798
g19
ag60
ag147
ag103
ag59
ag64
ag24
atRp2799
sS'Postural orthostatic tachycardia syndrome'
p2800
g3
((lp2801
g19
ag60
ag147
ag103
ag59
ag64
ag24
atRp2802
sS'Ejaculation delayed'
p2803
g3
((lp2804
g33
ag22
ag34
ag35
atRp2805
sS'Intra-abdominal haematoma'
p2806
g3
((lp2807
g513
ag514
ag515
ag516
ag517
ag518
ag519
atRp2808
sS'Metastatic neoplasm'
p2809
g3
((lp2810
g234
atRp2811
sS'Sinusitis'
p2812
g3
((lp2813
g20
ag21
ag6
ag111
ag223
ag23
ag22
ag47
ag124
ag236
ag26
ag27
ag109
atRp2814
sS'Purpura non-thrombocytopenic'
p2815
g3
((lp2816
g45
ag94
atRp2817
sS'Sinus congestion'
p2818
g3
((lp2819
g60
ag27
atRp2820
sS'Myelodysplastic syndrome'
p2821
g3
((lp2822
g47
ag234
ag8
ag70
atRp2823
sS'Hepatic function abnormal'
p2824
g3
((lp2825
g6
ag206
atRp2826
sS'Autonomic nervous system imbalance'
p2827
g3
((lp2828
g110
atRp2829
sS'Binge eating'
p2830
g3
((lp2831
g19
ag60
ag113
ag147
ag59
atRp2832
sS'Sensation of foreign body'
p2833
g3
((lp2834
g420
ag52
ag8
ag53
atRp2835
sS'Lethargy'
p2836
g3
((lp2837
g147
ag103
ag33
ag23
ag390
ag391
ag59
ag392
ag395
ag397
ag398
ag399
ag22
ag19
ag60
ag62
ag63
ag24
ag20
ag110
ag412
ag26
ag27
atRp2838
sS'Thyroid function test abnormal'
p2839
g3
((lp2840
g26
atRp2841
sS'Tendon rupture'
p2842
g3
((lp2843
g52
ag8
atRp2844
sS'Hot flush'
p2845
g3
((lp2846
g20
ag234
ag21
ag26
ag8
ag23
ag22
ag306
ag27
atRp2847
sS'Vaginismus'
p2848
g3
((lp2849
g655
ag323
ag591
ag1165
atRp2850
sS'Cycloplegia'
p2851
g3
((lp2852
g81
ag145
ag148
atRp2853
sS'Allergic granulomatous angiitis'
p2854
g3
((lp2855
g1584
atRp2856
sS'Impaired gastric emptying'
p2857
g3
((lp2858
g296
ag297
ag178
atRp2859
sS'Parathyroid disorder'
p2860
g3
((lp2861
g89
ag241
ag90
ag242
atRp2862
sS'Intestinal obstruction'
p2863
g3
((lp2864
g147
ag146
ag103
ag604
ag19
ag60
ag59
ag617
ag47
ag609
ag22
ag118
ag148
ag121
ag62
ag65
ag63
ag64
ag123
ag24
ag20
ag615
ag23
ag26
ag27
atRp2865
sS'Puncture site haemorrhage'
p2866
g3
((lp2867
g462
atRp2868
sS'Paraplegia'
p2869
g3
((lp2870
g52
atRp2871
sS'Bacterial infection'
p2872
g3
((lp2873
g547
atRp2874
sS'Blood triglycerides increased'
p2875
g3
((lp2876
g20
ag6
ag23
ag22
ag26
ag27
atRp2877
sS'Penile haemorrhage'
p2878
g3
((lp2879
g227
ag267
ag268
atRp2880
sS'Cardiotoxicity'
p2881
g3
((lp2882
g485
ag234
ag70
ag8
ag71
ag72
ag23
ag73
ag47
ag75
ag487
ag77
ag26
atRp2883
sS'Therapy naive'
p2884
g3
((lp2885
g296
ag297
ag178
atRp2886
sS'Muscle fatigue'
p2887
g3
((lp2888
g316
ag236
atRp2889
sS'Exophthalmos'
p2890
g3
((lp2891
g52
atRp2892
sS'Drug withdrawal syndrome neonatal'
p2893
g3
((lp2894
g147
ag146
ag103
ag19
ag60
ag113
ag59
ag110
ag112
ag108
ag22
ag115
ag117
ag118
ag120
ag121
ag62
ag65
ag63
ag64
ag82
ag123
ag24
ag20
ag26
ag27
atRp2895
sS'Petechiae'
p2896
g3
((lp2897
g57
ag234
ag21
ag117
ag124
ag23
ag73
ag47
ag6
ag134
ag33
ag74
ag34
ag219
ag489
ag26
ag24
ag48
atRp2898
sS'Eczema herpeticum'
p2899
g3
((lp2900
g547
atRp2901
sS'Salivary hypersecretion'
p2902
g3
((lp2903
g81
ag145
ag103
ag146
ag389
ag218
ag108
ag19
ag60
ag58
aS'206358'
p2904
ag110
ag393
ag7
ag2651
ag112
ag400
ag10
ag22
ag117
ag118
ag148
ag113
ag121
ag62
ag65
ag63
ag64
ag82
ag404
ag123
ag24
ag20
ag14
ag32
ag59
ag21
ag11
ag9
ag23
ag13
ag26
ag27
atRp2905
sS'Lacrimal disorder'
p2906
g3
((lp2907
g90
atRp2908
sS'Dry skin'
p2909
g3
((lp2910
g81
ag20
ag234
ag21
ag46
ag6
ag367
ag148
ag23
ag22
ag47
ag25
ag44
ag26
ag27
atRp2911
sS'Haemorrhage'
p2912
g3
((lp2913
g20
ag5
ag6
ag240
ag47
ag107
atRp2914
sS'Cardiovascular disorder'
p2915
g3
((lp2916
g27
atRp2917
sS'Viraemia'
p2918
g3
((lp2919
g89
ag241
ag90
ag242
atRp2920
sS'Polyp'
p2921
g3
((lp2922
g193
ag57
ag234
ag46
ag77
ag47
ag489
ag27
atRp2923
sS'Oculogyric crisis'
p2924
g3
((lp2925
g81
ag145
ag103
ag146
ag211
ag19
ag60
ag113
ag59
ag110
ag1352
ag452
ag112
ag108
ag22
ag115
ag147
ag117
ag118
ag148
ag120
ag121
ag62
ag65
ag63
ag64
ag82
ag123
ag24
ag20
ag406
ag149
ag26
atRp2926
sS'Motion sickness'
p2927
g3
((lp2928
g33
ag34
ag35
atRp2929
sS'Arachnoiditis'
p2930
g3
((lp2931
g189
ag52
atRp2932
sS'IIIrd nerve paralysis'
p2933
g3
((lp2934
g276
atRp2935
sS'Anovulatory cycle'
p2936
g3
((lp2937
g381
atRp2938
sS'Fat redistribution'
p2939
g3
((lp2940
g70
aS'3177'
p2941
atRp2942
sS'Enlarged clitoris'
p2943
g3
((lp2944
g179
atRp2945
sS'Hepatitis B'
p2946
g3
((lp2947
g1175
ag1176
ag241
ag90
ag242
atRp2948
sS'Oropharyngeal spasm'
p2949
g3
((lp2950
g19
ag60
ag147
ag103
ag59
ag110
ag146
ag120
ag115
ag62
ag63
ag64
ag82
ag24
atRp2951
sS'Maculopathy'
p2952
g3
((lp2953
g1188
atRp2954
sS'Epidermal necrosis'
p2955
g3
((lp2956
g6
ag223
ag240
ag111
ag321
ag463
ag125
ag107
ag124
atRp2957
sS'Acute psychosis'
p2958
g3
((lp2959
g81
atRp2960
sS'Necrotising colitis'
p2961
g3
((lp2962
g234
ag77
ag73
ag70
ag291
atRp2963
sS"Raynaud's phenomenon"
p2964
g3
((lp2965
g45
ag94
atRp2966
sS'Lactic acidosis'
p2967
g3
((lp2968
g133
ag134
ag15
ag1175
ag1176
ag645
ag487
ag2941
aS'5053'
p2969
atRp2970
sS'Lymphoproliferative disorder'
p2971
g3
((lp2972
g548
ag90
ag242
ag547
ag241
ag89
atRp2973
sS'Peripheral coldness'
p2974
g3
((lp2975
g147
ag45
ag94
ag35
ag65
ag34
ag64
ag33
ag22
atRp2976
sS'Abdominal pain'
p2977
g3
((lp2978
g20
ag70
ag6
ag8
ag111
ag23
ag22
ag47
ag124
ag26
ag27
atRp2979
sS'Excoriation'
p2980
g3
((lp2981
g34
ag35
atRp2982
sS'Myositis'
p2983
g3
((lp2984
g20
ag70
ag6
ag124
ag277
ag26
ag27
atRp2985
sS'Vaginal haemorrhage'
p2986
g3
((lp2987
g20
ag58
ag32
ag21
ag6
ag26
ag381
ag305
ag306
ag27
atRp2988
sS'Retrograde ejaculation'
p2989
g3
((lp2990
g19
ag60
ag59
ag116
ag120
ag115
ag62
ag63
ag82
atRp2991
sS'Diabetic hyperglycaemic coma'
p2992
g3
((lp2993
g81
ag145
ag103
ag146
ag19
ag60
ag113
ag59
ag110
ag112
ag108
ag22
ag115
ag147
ag117
ag118
ag148
ag120
ag121
ag62
ag65
ag63
ag64
ag82
ag123
ag24
ag26
atRp2994
sS'Periorbital oedema'
p2995
g3
((lp2996
g281
ag57
ag60
ag22
ag46
ag282
ag19
ag65
ag64
ag44
ag27
atRp2997
sS'Dysgeusia'
p2998
g3
((lp2999
g81
ag20
ag58
ag21
ag116
ag117
ag22
ag148
ag8
ag23
ag24
ag47
ag6
ag33
ag64
ag26
ag27
atRp3000
sS'Urine output'
p3001
g3
((lp3002
g8
ag608
ag70
ag616
ag77
atRp3003
sS'Proteinuria'
p3004
g3
((lp3005
g206
ag125
ag107
ag15
ag177
atRp3006
sS"Peyronie's disease"
p3007
g3
((lp3008
g45
ag94
atRp3009
sS'Tenosynovitis'
p3010
g3
((lp3011
g81
ag21
ag6
ag148
ag22
ag121
ag33
ag27
atRp3012
sS'Nephritis'
p3013
g3
((lp3014
g156
ag125
ag107
ag119
atRp3015
sS'Ectropion of cervix'
p3016
g3
((lp3017
g236
ag591
ag185
ag316
ag1165
ag655
ag305
ag306
atRp3018
sS'Neoplasm skin'
p3019
g3
((lp3020
g547
ag548
atRp3021
sS'Lymphocele'
p3022
g3
((lp3023
g548
atRp3024
sS'Suicide attempt'
p3025
g3
((lp3026
g19
ag60
ag147
ag103
ag21
ag64
ag22
ag121
ag62
ag33
ag34
ag35
ag24
atRp3027
sS'Gastrointestinal ulcer haemorrhage'
p3028
g3
((lp3029
S'4524'
p3030
ag109
atRp3031
sS'Alanine aminotransferase increased'
p3032
g3
((lp3033
g20
ag44
ag234
ag21
ag46
ag6
ag119
ag23
ag22
ag47
ag25
ag26
ag27
atRp3034
sS'Scrotal oedema'
p3035
g3
((lp3036
g44
ag57
ag548
ag90
ag242
ag47
ag241
ag26
atRp3037
sS'Protrusion tongue'
p3038
g3
((lp3039
g81
ag19
ag59
ag110
ag62
ag149
ag22
atRp3040
sS'Steroid withdrawal syndrome'
p3041
g3
((lp3042
g552
ag316
ag52
atRp3043
sS'Dehydration'
p3044
g3
((lp3045
g47
ag64
atRp3046
sS'Myocardial rupture'
p3047
g3
((lp3048
g552
ag316
ag52
ag53
atRp3049
sS'Derealisation'
p3050
g3
((lp3051
g81
ag405
ag408
ag394
ag389
ag34
atRp3052
sS'Thirst'
p3053
g3
((lp3054
g64
atRp3055
sS'Gastrointestinal disorder'
p3056
g3
((lp3057
g20
ag6
ag124
ag23
ag22
ag47
ag26
ag27
atRp3058
sS'Subcutaneous abscess'
p3059
g3
((lp3060
g46
atRp3061
sS'Cervical discharge'
p3062
g3
((lp3063
g305
atRp3064
sS'Gastritis erosive'
p3065
g3
((lp3066
g2581
ag2582
ag2583
ag2584
ag2585
ag2586
ag2587
atRp3067
sS'Torsade de pointes'
p3068
g3
((lp3069
g81
ag145
ag103
ag563
ag313
ag314
ag104
ag105
ag33
ag34
ag19
ag60
ag58
ag59
ag110
ag8
ag112
ag108
ag22
ag114
ag115
ag147
ag116
ag117
ag118
ag148
ag113
ag120
ag121
ag62
ag65
ag63
ag64
ag82
ag146
ag123
ag24
ag20
ag32
ag21
ag23
ag26
ag27
atRp3070
sS'Ventricular dysfunction'
p3071
g3
((lp3072
g57
atRp3073
sS'Erectile dysfunction'
p3074
g3
((lp3075
g81
ag145
ag45
ag103
ag146
ag33
ag34
ag35
ag25
ag108
ag19
ag60
ag58
ag916
ag59
ag110
ag123
ag111
ag112
ag113
ag179
ag180
ag317
ag115
ag147
ag315
ag116
ag117
ag118
ag148
ag320
ag119
ag120
ag121
ag62
ag114
ag63
ag82
ag322
ag24
ag20
ag324
ag21
ag325
ag6
ag124
ag23
ag22
ag181
ag177
ag26
ag27
atRp3076
sS'Blood potassium decreased'
p3077
g3
((lp3078
g286
ag287
ag290
ag292
ag46
ag8
atRp3079
sS'Hyperglycaemia'
p3080
g3
((lp3081
g20
ag58
ag486
ag21
ag6
ag124
ag119
ag22
ag134
ag26
ag27
atRp3082
sS'Oedema genital'
p3083
g3
((lp3084
g1165
ag77
atRp3085
sS'Obesity'
p3086
g3
((lp3087
g81
ag19
ag113
ag103
ag59
ag60
ag117
ag118
ag147
ag112
ag121
ag115
ag62
ag65
ag63
ag64
ag146
ag24
atRp3088
sS'Electrocardiogram T wave abnormal'
p3089
g3
((lp3090
g19
ag60
ag147
ag59
ag110
ag63
atRp3091
sS'Mood swings'
p3092
g3
((lp3093
g20
ag234
ag32
ag21
ag6
ag26
ag288
ag381
ag23
ag22
ag47
ag124
ag306
ag27
atRp3094
sS'Respiratory tract congestion'
p3095
g3
((lp3096
g22
atRp3097
sS'Pneumothorax'
p3098
g3
((lp3099
g90
atRp3100
sS'Abnormal withdrawal bleeding'
p3101
g3
((lp3102
g193
ag58
ag236
ag591
ag185
ag316
ag1165
ag47
ag655
ag305
ag306
atRp3103
sS'Transient ischaemic attack'
p3104
g3
((lp3105
g44
ag286
ag287
ag177
ag267
ag290
ag268
ag292
ag46
ag64
ag227
ag109
atRp3106
sS'Panophthalmitis'
p3107
g3
((lp3108
g138
atRp3109
sS'Pleural fibrosis'
p3110
g3
((lp3111
g19
ag60
ag113
ag103
ag59
ag110
ag146
ag147
ag120
ag403
ag62
ag65
ag63
ag64
ag24
atRp3112
sS'Galactorrhoea'
p3113
g3
((lp3114
g81
ag145
ag103
ag543
ag146
ag105
ag106
ag33
ag34
ag35
ag306
ag19
ag60
ag58
ag59
ag110
ag211
ag112
ag108
ag22
ag114
ag115
ag147
ag116
ag117
ag118
ag148
ag113
ag120
ag121
ag62
ag65
ag63
ag64
ag82
ag123
ag24
ag20
ag32
ag21
ag6
ag381
ag23
ag26
ag27
atRp3115
sS'Post herpetic neuralgia'
p3116
g3
((lp3117
g296
ag297
ag178
atRp3118
sS'Chest pain'
p3119
g3
((lp3120
g20
ag58
ag6
ag124
ag8
ag22
ag23
ag77
ag47
ag26
ag27
atRp3121
sS'Rhinitis seasonal'
p3122
g3
((lp3123
g35
atRp3124
sS'Hallucination, auditory'
p3125
g3
((lp3126
g35
atRp3127
sS'Menometrorrhagia'
p3128
g3
((lp3129
g33
atRp3130
sS'Parosmia'
p3131
g3
((lp3132
g20
ag32
ag21
ag6
ag124
ag23
ag22
ag26
ag27
atRp3133
sS'Throat tightness'
p3134
g3
((lp3135
g81
ag145
ag103
ag146
ag105
ag19
ag60
ag58
ag59
ag110
ag211
ag112
ag108
ag22
ag115
ag147
ag117
ag118
ag148
ag113
ag120
ag121
ag62
ag65
ag63
ag64
ag82
ag123
ag24
ag23
ag848
ag149
atRp3136
sS'Extrapyramidal disorder'
p3137
g3
((lp3138
g81
ag145
ag103
ag543
ag563
ag147
ag104
ag105
ag33
ag34
ag35
ag19
ag60
ag58
ag59
ag110
ag211
ag112
ag108
ag219
ag22
ag114
ag115
ag650
ag116
ag117
ag118
ag148
ag113
ag120
ag121
ag403
ag62
ag65
ag63
ag64
ag82
ag146
ag123
ag24
ag20
ag32
ag21
ag6
ag23
ag48
ag149
ag26
ag27
atRp3139
sS'Blood disorder'
p3140
g3
((lp3141
g110
atRp3142
sS"Addison's disease"
p3143
g3
((lp3144
g296
ag297
ag178
atRp3145
sS'Bundle branch block'
p3146
g3
((lp3147
g81
ag145
ag103
ag146
ag313
ag314
ag104
ag33
ag34
ag19
ag60
ag113
ag59
ag110
ag8
ag112
ag108
ag22
ag114
ag115
ag147
ag116
ag117
ag118
ag148
ag120
ag121
ag62
ag63
ag64
ag82
ag24
ag32
ag48
ag26
ag27
atRp3148
sS'Osteopenia'
p3149
g3
((lp3150
g138
atRp3151
sS'Dysarthria'
p3152
g3
((lp3153
g81
ag145
ag103
ag397
ag240
ag218
ag33
ag1093
ag23
ag108
ag390
ag391
ag58
ag59
ag392
ag393
ag394
ag395
ag396
ag111
ag398
ag399
ag400
ag840
ag178
ag219
ag389
ag19
ag650
ag60
ag117
ag118
ag148
ag223
ag120
ag121
ag62
ag65
ag63
ag64
ag82
ag404
ag123
ag24
ag20
ag32
ag405
ag408
ag409
ag112
ag410
ag110
ag412
ag22
ag6
ag48
ag413
ag21
ag26
ag27
atRp3154
sS'Plantar fasciitis'
p3155
g3
((lp3156
g33
ag34
ag35
atRp3157
sS'Erysipelas'
p3158
g3
((lp3159
g33
ag34
atRp3160
sS'Faecaloma'
p3161
g3
((lp3162
g81
ag145
ag103
ag146
ag19
ag60
ag59
ag110
ag112
ag108
ag297
ag178
ag296
ag22
ag147
ag117
ag118
ag148
ag121
ag62
ag65
ag64
ag123
ag24
ag506
atRp3163
sS'Uterine cervical erosion'
p3164
g3
((lp3165
g381
ag185
ag305
ag306
ag591
atRp3166
sS'Cerumen impaction'
p3167
g3
((lp3168
g33
ag34
atRp3169
sS'Xanthopsia'
p3170
g3
((lp3171
g855
ag486
ag856
ag162
ag163
ag488
ag164
atRp3172
sS'Haematoma'
p3173
g3
((lp3174
g44
ag57
ag47
ag46
atRp3175
sS'Proctalgia'
p3176
g3
((lp3177
g8
ag27
atRp3178
sS'Nasal dryness'
p3179
g3
((lp3180
g81
ag145
ag148
atRp3181
sS'Interstitial lung disease'
p3182
g3
((lp3183
g57
ag46
ag23
ag47
ag74
ag26
atRp3184
sS'Myasthenia gravis'
p3185
g3
((lp3186
g8
atRp3187
sS'Pigmentation disorder'
p3188
g3
((lp3189
g44
ag46
atRp3190
sS'Atrioventricular block first degree'
p3191
g3
((lp3192
g60
ag103
atRp3193
sS'Glossodynia'
p3194
g3
((lp3195
g20
ag286
ag287
ag290
ag292
ag26
atRp3196
sS'Pneumonia aspiration'
p3197
g3
((lp3198
g19
ag60
ag147
ag103
ag59
ag112
ag146
ag110
ag120
ag121
ag115
ag62
ag840
ag63
ag64
ag82
ag123
ag24
ag48
atRp3199
sS'Foetal distress syndrome'
p3200
g3
((lp3201
g189
ag1956
atRp3202
sS'Haemangioma'
p3203
g3
((lp3204
g58
ag234
ag303
ag655
ag305
ag306
ag591
atRp3205
sS'Pyelonephritis'
p3206
g3
((lp3207
g90
atRp3208
sS'Suicidal ideation'
p3209
g3
((lp3210
g32
ag21
ag110
ag26
ag380
ag112
ag24
ag33
ag34
ag35
ag82
ag1357
ag123
ag27
atRp3211
sS'Vascular purpura'
p3212
g3
((lp3213
g58
ag21
ag6
ag163
ag488
ag23
ag125
ag107
ag33
atRp3214
sS'Fluid retention'
p3215
g3
((lp3216
g20
ag57
ag234
ag6
ag306
ag381
ag23
ag47
ag380
ag124
ag26
ag27
atRp3217
sS'Growth of eyelashes'
p3218
g3
((lp3219
g420
atRp3220
sS'Skin irritation'
p3221
g3
((lp3222
g20
ag818
ag367
atRp3223
sS'Blood alkaline phosphatase increased'
p3224
g3
((lp3225
g20
ag6
ag8
ag47
ag26
ag27
atRp3226
sS'Ovarian cancer'
p3227
g3
((lp3228
g193
ag234
ag655
ag305
ag306
ag194
atRp3229
sS'Biliary colic'
p3230
g3
((lp3231
g296
ag22
ag297
ag27
ag178
atRp3232
sS'Leukocytoclastic vasculitis'
p3233
g3
((lp3234
g15
atRp3235
sS'Heart rate irregular'
p3236
g3
((lp3237
g115
ag118
ag112
ag121
ag62
ag63
ag64
ag120
atRp3238
sS'Left ventricular dysfunction'
p3239
g3
((lp3240
g44
ag46
atRp3241
sS'Toothache'
p3242
g3
((lp3243
g19
ag60
ag21
ag59
ag6
ag22
ag27
ag62
ag65
ag63
ag64
ag24
atRp3244
sS'Flat affect'
p3245
g3
((lp3246
g19
ag60
ag113
ag90
ag21
ag22
ag64
ag24
ag121
ag404
ag218
ag33
ag35
ag65
ag123
ag27
ag62
atRp3247
sS'Electrocardiogram QRS complex'
p3248
g3
((lp3249
g81
ag145
ag543
ag313
ag314
ag33
ag34
ag58
ag110
ag112
ag108
ag22
ag114
ag1076
aS'6581'
p3250
ag319
ag116
ag117
ag118
ag148
ag1167
ag62
ag63
ag82
ag322
ag24
ag48
atRp3251
sS'Osteoporosis'
p3252
g3
((lp3253
g302
ag52
ag32
ag27
ag916
atRp3254
sS'Muscle spasticity'
p3255
g3
((lp3256
g669
atRp3257
sS'Dry eye'
p3258
g3
((lp3259
g81
ag145
ag103
ag60
ag33
ag19
ag57
ag22
ag147
ag116
ag117
ag118
ag148
ag121
ag65
ag63
ag64
ag82
ag20
ag23
ag26
ag27
atRp3260
sS'Cardiac failure congestive'
p3261
g3
((lp3262
g317
ag20
ag45
ag324
ag1446
ag1445
ag111
ag46
ag320
ag23
ag47
ag6
ag125
ag107
ag75
ag8
ag156
ag44
ag109
ag5
atRp3263
sS'Mediastinal disorder'
p3264
g3
((lp3265
g20
ag22
ag119
ag23
ag77
ag47
ag26
ag27
atRp3266
sS'Drug tolerance'
p3267
g3
((lp3268
g34
ag22
ag297
ag33
ag178
ag296
ag24
atRp3269
sS'Eyelid oedema'
p3270
g3
((lp3271
g44
ag57
ag46
atRp3272
sS'Optic ischaemic neuropathy'
p3273
g3
((lp3274
g25
ag227
ag267
ag268
atRp3275
sS'Appendicitis'
p3276
g3
((lp3277
g81
ag33
ag27
ag34
atRp3278
sS'Systemic lupus erythematosus rash'
p3279
g3
((lp3280
g513
ag514
ag515
ag516
ag517
ag518
ag519
atRp3281
sS'Colitis'
p3282
g3
((lp3283
g90
ag5
ag291
ag6
ag124
ag240
ag111
ag119
ag47
ag125
ag107
ag26
atRp3284
sS'Thrombophlebitis superficial'
p3285
g3
((lp3286
g305
ag306
atRp3287
sS'Mouth ulceration'
p3288
g3
((lp3289
g20
ag90
ag242
ag21
ag46
ag6
ag111
ag119
ag23
ag22
ag47
ag32
ag70
ag25
ag26
ag27
ag109
atRp3290
sS'Affect lability'
p3291
g3
((lp3292
g20
ag234
ag32
ag21
ag6
ag288
ag381
ag23
ag22
ag35
ag26
ag27
atRp3293
sS'Eructation'
p3294
g3
((lp3295
g20
ag58
ag21
ag6
ag89
ag240
ag64
ag111
ag23
ag22
ag463
ag125
ag107
ag124
ag25
ag26
ag27
ag109
atRp3296
sS'Deafness neurosensory'
p3297
g3
((lp3298
g1188
atRp3299
sS'Self-injurious ideation'
p3300
g3
((lp3301
g32
ag33
ag22
ag34
ag35
atRp3302
sS'Haemoglobin decreased'
p3303
g3
((lp3304
g19
ag60
ag46
ag23
ag47
ag20
ag44
ag27
atRp3305
sS'Cranial nerve paralysis'
p3306
g3
((lp3307
g189
ag77
atRp3308
sS'Dermatitis'
p3309
g3
((lp3310
g20
ag6
ag124
ag23
ag47
ag385
ag26
ag27
atRp3311
sS'Pulmonary haemorrhage'
p3312
g3
((lp3313
g281
ag20
ag21
ag267
ag268
ag23
ag282
ag26
atRp3314
sS'Periodontal destruction'
p3315
g3
((lp3316
g81
atRp3317
sS'Blood bilirubin increased'
p3318
g3
((lp3319
g20
ag57
ag134
ag46
ag8
ag23
ag47
ag74
ag44
ag27
atRp3320
sS'Ejaculation disorder'
p3321
g3
((lp3322
g81
ag145
ag103
ag146
ag82
ag33
ag34
ag35
ag1357
ag19
ag60
ag113
ag59
ag110
ag112
ag108
ag22
ag115
ag147
ag267
ag268
ag117
ag118
ag148
ag120
ag121
ag62
ag65
ag63
ag64
ag1765
ag1766
ag123
ag24
ag32
ag21
ag26
ag27
atRp3323
sS'Psychotic disorder'
p3324
g3
((lp3325
g81
ag145
ag103
ag90
ag563
ag147
ag33
ag34
ag35
ag19
ag60
ag58
ag59
ag110
ag112
ag108
ag219
ag22
ag322
ag115
ag650
ag116
ag117
ag118
ag148
ag113
ag120
ag62
ag63
ag64
ag82
ag146
ag24
ag20
ag406
ag32
ag21
ag651
ag23
ag1168
ag48
ag14
ag26
ag27
atRp3326
sS'Akathisia'
p3327
g3
((lp3328
g81
ag145
ag103
ag146
ag105
ag33
ag34
ag35
ag19
ag60
ag58
ag59
ag110
ag1352
ag211
ag112
ag108
ag22
ag115
ag147
ag117
ag118
ag148
ag113
ag120
ag121
ag62
ag65
ag63
ag64
ag82
ag123
ag24
ag20
ag23
ag149
ag26
atRp3329
sS'Torticollis'
p3330
g3
((lp3331
g81
ag145
ag103
ag146
ag33
ag19
ag60
ag113
ag59
ag110
ag112
ag108
ag22
ag115
ag147
ag117
ag118
ag148
ag120
ag121
ag62
ag63
ag64
ag82
ag123
ag24
ag20
ag149
ag26
atRp3332
sS'Initial insomnia'
p3333
g3
((lp3334
g33
ag34
ag35
atRp3335
sS'Atrial fibrillation'
p3336
g3
((lp3337
g22
atRp3338
sS'Muscle rigidity'
p3339
g3
((lp3340
g81
ag145
ag103
ag146
ag105
ag149
ag12
ag19
ag60
ag113
ag59
ag110
ag7
ag211
ag112
ag108
ag10
ag297
ag178
ag296
ag22
ag115
ag147
ag117
ag118
ag148
ag120
ag121
ag62
ag65
ag63
ag64
ag82
ag123
ag24
ag20
ag11
ag9
ag13
ag26
atRp3341
sS'Lymphadenopathy'
p3342
g3
((lp3343
g20
ag6
ag26
ag27
atRp3344
sS'Nephrotic syndrome'
p3345
g3
((lp3346
g286
ag287
ag323
ag5
ag157
ag290
ag6
ag292
ag1042
ag125
ag107
ag122
ag781
ag156
ag15
ag109
ag2163
atRp3347
sS'Hepatitis chronic active'
p3348
g3
((lp3349
g316
ag74
ag236
ag276
atRp3350
sS'Renal graft loss'
p3351
g3
((lp3352
g89
ag241
ag90
ag242
atRp3353
sS'Necrotising enterocolitis neonatal'
p3354
g3
((lp3355
g291
atRp3356
sS'Benign neoplasm of skin'
p3357
g3
((lp3358
g241
ag90
ag242
atRp3359
sS'Testicular pain'
p3360
g3
((lp3361
g33
ag34
ag35
ag1765
ag1766
ag22
atRp3362
sS'Asthenia'
p3363
g3
((lp3364
g20
ag21
ag116
ag6
ag118
ag64
ag119
ag23
ag22
ag47
ag65
ag63
ag124
ag26
ag27
atRp3365
sS'Hepatobiliary disease'
p3366
g3
((lp3367
g20
ag58
ag134
ag21
ag46
ag6
ag119
ag23
ag321
ag47
ag74
ag26
ag27
ag109
atRp3368
sS'Cerebral artery embolism'
p3369
g3
((lp3370
g591
ag1446
ag1445
ag1834
ag1165
ag1835
atRp3371
sS'Hypoventilation'
p3372
g3
((lp3373
g401
ag404
ag407
ag402
ag411
ag218
atRp3374
sS'Tachyarrhythmia'
p3375
g3
((lp3376
g8
atRp3377
sS'Onychomycosis'
p3378
g3
((lp3379
g22
atRp3380
sS'Traumatic liver injury'
p3381
g3
((lp3382
g6
ag58
atRp3383
sS'Testicular swelling'
p3384
g3
((lp3385
g81
ag145
ag103
ag543
ag146
ag313
ag314
ag105
ag33
ag34
ag35
ag58
ag110
ag112
ag108
ag22
ag114
ag115
ag116
ag117
ag118
ag148
ag1167
ag62
ag120
ag82
ag24
ag63
atRp3386
sS'Leukopenia'
p3387
g3
((lp3388
g40
ag240
ag105
ag125
ag485
ag110
ag8
ag112
ag108
ag47
ag75
ag487
ag15
ag223
ag62
ag20
ag21
ag205
ag124
ag23
ag6
ag74
ag206
ag26
atRp3389
sS'Impaired healing'
p3390
g3
((lp3391
g52
ag53
atRp3392
sS'Glabellar reflex abnormal'
p3393
g3
((lp3394
g19
ag60
ag147
ag103
ag59
ag64
ag24
atRp3395
sS'Confusional state'
p3396
g3
((lp3397
g81
ag145
ag103
ag8
ag240
ag218
ag33
ag34
ag19
ag60
ag58
ag59
ag110
ag111
ag21
ag112
ag108
ag178
ag296
ag219
ag389
ag322
ag117
ag118
ag148
ag223
ag119
ag403
ag62
ag65
ag63
ag64
ag82
ag404
ag24
ag20
ag32
ag405
ag408
ag6
ag124
ag23
ag22
ag394
ag48
ag26
ag27
atRp3398
sS'Fat embolism'
p3399
g3
((lp3400
g552
ag316
ag52
ag53
atRp3401
sS'Neonatal disorder'
p3402
g3
((lp3403
g90
ag242
ag240
ag111
ag119
ag463
ag506
ag241
ag89
atRp3404
sS'Floppy iris syndrome'
p3405
g3
((lp3406
g114
ag115
ag2134
ag104
ag2135
ag120
atRp3407
sS'Cystoid macular oedema'
p3408
g3
((lp3409
g420
atRp3410
sS'Dizziness postural'
p3411
g3
((lp3412
g19
ag60
ag113
ag103
ag59
ag110
ag146
ag147
ag22
ag120
ag24
ag121
ag115
ag62
ag63
ag64
ag82
ag123
ag27
atRp3413
sS'Paraparesis'
p3414
g3
((lp3415
g52
ag53
atRp3416
sS'Anaemia megaloblastic'
p3417
g3
((lp3418
g401
ag404
ag407
ag409
ag402
aS'1719'
p3419
ag411
aS'113235'
p3420
ag410
atRp3421
sS'Phonophobia'
p3422
g3
((lp3423
g538
atRp3424
sS'Hyponatraemia'
p3425
g3
((lp3426
g20
ag40
ag6
ag240
ag23
ag47
ag25
ag69
ag27
atRp3427
sS'Leukaemia'
p3428
g3
((lp3429
S'5802'
p3430
ag74
ag70
atRp3431
sS'Acute myeloid leukaemia'
p3432
g3
((lp3433
g485
ag70
atRp3434
sS'Conversion disorder'
p3435
g3
((lp3436
g82
ag32
ag33
ag22
atRp3437
sS'Meningitis aseptic'
p3438
g3
((lp3439
g5
ag6
ag124
ag111
ag3420
ag125
ag107
ag323
ag109
ag15
atRp3440
sS'Endocrine disorder'
p3441
g3
((lp3442
g19
ag60
ag103
aS'1312'
p3443
ag59
ag110
ag22
ag23
ag24
ag62
ag82
ag20
ag108
ag26
ag27
atRp3444
sS'Influenza'
p3445
g3
((lp3446
g6
ag124
ag223
ag119
ag47
ag111
ag236
ag27
atRp3447
sS'Viral skin infection'
p3448
g3
((lp3449
g134
atRp3450
sS'Neuritis'
p3451
g3
((lp3452
g134
ag291
ag6
ag77
ag487
ag27
atRp3453
sS'Menopausal symptoms'
p3454
g3
((lp3455
g20
ag234
ag26
ag8
ag23
ag22
ag306
ag27
atRp3456
sS'Osteonecrosis'
p3457
g3
((lp3458
g52
atRp3459
sS'Limb injury'
p3460
g3
((lp3461
g33
ag34
ag35
atRp3462
sS'Adrenocortical insufficiency acute'
p3463
g3
((lp3464
g552
ag316
ag52
atRp3465
sS'Polymyalgia rheumatica'
p3466
g3
((lp3467
g276
atRp3468
sS"Horner's syndrome"
p3469
g3
((lp3470
g189
atRp3471
sS'Rheumatoid arthritis'
p3472
g3
((lp3473
g33
ag22
atRp3474
sS'Exostosis'
p3475
g3
((lp3476
g33
ag34
atRp3477
sS'Miliaria'
p3478
g3
((lp3479
g52
ag53
atRp3480
sS'Prothrombin level increased'
p3481
g3
((lp3482
g89
ag8
atRp3483
sS'Pregnancy'
p3484
g3
((lp3485
g19
ag60
ag59
ag110
ag381
ag23
ag121
ag62
ag64
ag82
ag20
ag26
ag22
atRp3486
sS'Panic attack'
p3487
g3
((lp3488
g33
ag34
atRp3489
sS'Oedema'
p3490
g3
((lp3491
g20
ag58
ag134
ag117
ag6
ag125
ag385
ag24
ag47
ag23
ag403
ag62
ag63
ag26
ag27
ag22
atRp3492
sS'Ear pain'
p3493
g3
((lp3494
g20
ag6
ag65
ag64
ag25
ag26
ag27
atRp3495
sS'Swollen tongue'
p3496
g3
((lp3497
g60
ag58
ag103
ag115
ag120
ag27
ag62
ag63
ag64
ag26
ag24
atRp3498
sS'Hyperlipidaemia'
p3499
g3
((lp3500
g6
ag32
ag27
ag21
ag22
atRp3501
sS'Hypophosphataemia'
p3502
g3
((lp3503
g281
ag57
ag287
ag32
ag1178
ag286
ag89
ag138
ag290
ag292
ag46
ag282
ag47
ag241
ag74
ag20
ag44
ag26
ag1177
atRp3504
sS'Oestrogenic effect'
p3505
g3
((lp3506
g302
atRp3507
sS'Osteomalacia'
p3508
g3
((lp3509
g1175
ag1176
ag1177
ag1178
atRp3510
sS'Ligament injury'
p3511
g3
((lp3512
g33
ag34
atRp3513
sS'Substance abuse'
p3514
g3
((lp3515
g296
ag297
ag178
atRp3516
sS'Spinal haematoma'
p3517
g3
((lp3518
g363
atRp3519
sS'Osteonecrosis of jaw'
p3520
g3
((lp3521
g44
ag286
ag287
ag290
ag138
ag46
ag292
aS'523'
p3522
ag3430
atRp3523
sS'Obsessive-compulsive disorder'
p3524
g3
((lp3525
g19
ag60
ag59
ag110
ag120
ag35
ag82
ag22
atRp3526
sS'Hyperhidrosis'
p3527
g3
((lp3528
g20
ag6
ag23
ag22
ag47
ag26
ag27
atRp3529
sS'Withdrawal bleed'
p3530
g3
((lp3531
g381
ag185
ag319
ag306
ag305
atRp3532
sS'Porphyrin metabolism disorder'
p3533
g3
((lp3534
g655
ag306
atRp3535
sS'Skin fissures'
p3536
g3
((lp3537
g289
atRp3538
sS'Protein-losing gastroenteropathy'
p3539
g3
((lp3540
g513
ag514
ag515
ag516
ag517
ag518
ag519
atRp3541
sS'Renal impairment'
p3542
g3
((lp3543
g90
ag5
ag70
ag125
ag107
ag109
ag111
ag47
ag277
ag6
ag15
ag223
ag119
ag321
ag20
ag1175
ag124
ag23
ag205
ag74
ag206
ag26
ag1470
ag1176
atRp3544
sS'Venous pressure increased'
p3545
g3
((lp3546
g90
ag242
ag240
ag111
ag119
ag241
ag89
atRp3547
sS'Skin disorder'
p3548
g3
((lp3549
g20
ag23
ag22
ag47
ag26
ag27
atRp3550
sS'Hypoxia'
p3551
g3
((lp3552
g401
ag134
ag404
ag407
ag402
ag411
ag218
atRp3553
sS'Euphoric mood'
p3554
g3
((lp3555
g396
ag240
ag218
ag33
ag1093
ag34
ag35
ag390
ag391
ag2173
ag539
ag392
ag393
ag413
ag395
ag288
ag397
ag398
ag399
ag400
ag649
ag297
ag178
ag296
ag389
ag21
ag223
ag121
ag403
ag62
ag65
ag64
aS'64816'
p3556
ag20
ag32
ag405
ag408
ag409
ag6
ag410
ag412
ag22
ag394
ag404
ag26
ag27
atRp3557
sS'Blunted affect'
p3558
g3
((lp3559
g81
ag19
ag147
ag103
ag59
ag60
ag146
ag110
ag120
ag22
ag115
ag62
ag63
ag64
ag82
ag24
atRp3560
sS'Nerve injury'
p3561
g3
((lp3562
g52
ag53
atRp3563
sS'Coma'
p3564
g3
((lp3565
g562
ag32
ag5
ag6
ag124
ag240
ag125
ag48
ag178
atRp3566
sS'Cardiomyopathy'
p3567
g3
((lp3568
g20
ag8
ag26
ag72
ag23
ag47
ag487
ag963
ag109
atRp3569
sS'White blood cell disorder'
p3570
g3
((lp3571
g25
atRp3572
sS'Sudden onset of sleep'
p3573
g3
((lp3574
g19
ag60
ag113
ag103
ag59
ag110
ag146
ag147
ag403
ag62
ag65
ag63
ag64
ag24
atRp3575
sS'Unresponsive to stimuli'
p3576
g3
((lp3577
g19
ag60
ag147
ag103
ag59
ag115
ag62
ag63
ag64
ag24
atRp3578
sS'Hypocalcaemia'
p3579
g3
((lp3580
g44
ag57
ag234
ag90
ag46
ag138
ag47
ag487
ag26
atRp3581
sS'Breast enlargement'
p3582
g3
((lp3583
g81
ag146
ag103
ag543
ag33
ag34
ag35
ag19
ag58
ag59
ag110
ag112
ag108
ag22
ag114
ag3250
ag319
ag116
ag117
ag118
ag113
ag120
ag62
ag63
ag64
ag82
ag24
ag20
ag32
ag21
ag6
ag124
aS'4914'
p3584
ag381
ag23
ag185
ag26
ag27
atRp3585
sS'Cerebrovascular accident'
p3586
g3
((lp3587
g81
ag147
ag103
ag543
ag146
ag33
ag34
ag35
ag60
ag177
ag112
ag108
ag47
aS'8824'
p3588
ag22
ag114
ag115
ag116
ag117
ag118
ag120
ag121
ag62
ag65
ag63
ag64
ag82
ag24
ag616
ag23
ag662
ag305
ag27
atRp3589
sS'Acne'
p3590
g3
((lp3591
g19
ag60
ag548
ag547
ag185
ag381
ag23
ag47
ag20
ag26
ag27
atRp3592
sS'Hyperaesthesia'
p3593
g3
((lp3594
g20
ag47
ag32
ag6
ag8
ag23
ag538
ag65
ag26
ag27
atRp3595
sS'Palmar-plantar erythrodysaesthesia syndrome'
p3596
g3
((lp3597
g47
ag8
ag74
ag70
ag77
atRp3598
sS'Gout'
p3599
g3
((lp3600
g6
ag27
ag23
ag22
atRp3601
sS'Gastrointestinal candidiasis'
p3602
g3
((lp3603
g90
ag242
ag47
ag241
ag25
ag89
atRp3604
sS'Apathy'
p3605
g3
((lp3606
g90
ag21
ag64
ag22
ag121
ag218
ag33
ag35
ag27
atRp3607
sS'Increased insulin requirement'
p3608
g3
((lp3609
g552
ag316
ag52
ag53
atRp3610
sS'Telangiectasia'
p3611
g3
((lp3612
g552
ag52
ag2514
ag53
atRp3613
sS'Rash generalised'
p3614
g3
((lp3615
g234
atRp3616
sS'Benign intracranial hypertension'
p3617
g3
((lp3618
g316
ag52
ag2514
atRp3619
sS'Bleeding time prolonged'
p3620
g3
((lp3621
g15
ag6
ag111
ag240
ag223
ag125
ag107
atRp3622
sS'Anaphylactoid syndrome of pregnancy'
p3623
g3
((lp3624
g1195
ag1197
ag61
atRp3625
sS'Painful ejaculation'
p3626
g3
((lp3627
g34
ag116
atRp3628
sS'Cardiac disorder'
p3629
g3
((lp3630
g19
ag20
ag22
ag23
ag77
ag47
ag26
ag27
atRp3631
sS"Non-Hodgkin's lymphoma"
p3632
g3
((lp3633
g547
ag548
atRp3634
sS'Uveitis'
p3635
g3
((lp3636
g138
ag420
atRp3637
sS'Cataract'
p3638
g3
((lp3639
g52
ag27
ag53
atRp3640
sS'Cellulitis gangrenous'
p3641
g3
((lp3642
g15
ag1042
ag125
ag107
ag109
ag5
atRp3643
sS'Rash maculo-papular'
p3644
g3
((lp3645
g20
ag6
ag23
ag47
ag26
ag27
atRp3646
sS'Proctitis ulcerative'
p3647
g3
((lp3648
g2581
ag2582
ag2583
ag2584
ag2585
ag2586
ag2587
atRp3649
sS'Polydipsia'
p3650
g3
((lp3651
g147
ag145
ag103
ag146
ag19
ag60
ag113
ag59
ag110
ag112
ag108
ag115
ag117
ag118
ag148
ag120
ag121
ag62
ag65
ag63
ag64
ag82
ag123
ag24
atRp3652
sS'Cognitive disorder'
p3653
g3
((lp3654
g20
ag21
ag223
ag316
ag111
ag119
ag840
ag276
ag124
ag1963
ag26
ag27
ag74
atRp3655
sS'Angina unstable'
p3656
g3
((lp3657
g227
ag267
ag268
atRp3658
sS'Tongue spasm'
p3659
g3
((lp3660
g19
ag60
ag147
ag103
ag59
ag110
ag146
ag120
ag115
ag62
ag63
ag64
ag82
ag24
atRp3661
sS'Asterixis'
p3662
g3
((lp3663
g219
ag32
atRp3664
sS'Vision blurred'
p3665
g3
((lp3666
g81
ag145
ag58
ag112
ag117
ag118
ag148
ag110
ag115
ag120
ag22
ag125
ag62
ag33
ag23
ag34
ag82
ag20
ag219
ag24
atRp3667
sS'Catatonia'
p3668
g3
((lp3669
g19
ag60
ag45
ag103
ag94
ag59
ag112
ag110
ag82
ag23
ag108
ag121
ag62
ag65
ag63
ag120
ag149
ag22
atRp3670
sS'Pain in extremity'
p3671
g3
((lp3672
g27
atRp3673
sS'Surgery'
p3674
g3
((lp3675
g81
ag82
ag62
ag32
ag120
atRp3676
sS'Cytomegalovirus colitis'
p3677
g3
((lp3678
g90
ag242
ag240
ag111
ag119
ag241
ag89
atRp3679
sS'Disturbance in sexual arousal'
p3680
g3
((lp3681
g147
ag146
ag103
ag33
ag34
ag35
ag19
ag60
ag113
ag59
ag110
ag112
ag108
ag178
ag179
ag22
ag114
ag115
ag116
ag117
ag180
ag120
ag403
ag62
ag63
ag64
ag82
ag24
ag20
ag177
ag21
ag6
ag23
ag181
ag26
ag27
atRp3682
sS'Haemolytic uraemic syndrome'
p3683
g3
((lp3684
g610
aS'6555'
p3685
ag548
ag616
ag547
ag606
ag611
ag607
ag612
ag605
ag620
ag613
ag621
atRp3686
sS'Vertigo'
p3687
g3
((lp3688
g20
ag21
ag6
ag124
ag240
ag223
ag23
ag22
ag125
ag107
ag65
ag64
ag26
ag27
atRp3689
sS'Crying'
p3690
g3
((lp3691
g33
atRp3692
sS'Malignant melanoma'
p3693
g3
((lp3694
g547
ag548
ag241
ag90
ag242
atRp3695
sS'Haemodynamic instability'
p3696
g3
((lp3697
g967
ag968
ag902
atRp3698
sS'Concussion'
p3699
g3
((lp3700
g33
ag34
ag35
atRp3701
sS'Sluggishness'
p3702
g3
((lp3703
g81
ag147
ag103
ag146
ag35
ag19
ag60
ag113
ag59
ag110
ag112
ag108
ag115
ag117
ag118
ag120
ag121
ag62
ag65
ag63
ag64
ag82
ag123
ag24
ag20
ag26
atRp3704
sS'Nystagmus'
p3705
g3
((lp3706
g396
ag240
ag218
ag393
ag301
ag8
ag21
ag649
ag219
ag389
ag48
ag650
ag404
ag20
ag32
ag405
ag408
ag394
ag651
ag506
ag74
ag124
ag69
ag27
atRp3707
sS'Gastric polyps'
p3708
g3
((lp3709
g25
atRp3710
sS'Retroperitoneal fibrosis'
p3711
g3
((lp3712
g60
ag113
ag146
ag108
ag403
ag62
ag65
ag63
ag64
ag24
atRp3713
sS'Thrombocytosis'
p3714
g3
((lp3715
g8
atRp3716
sS'Blood urea increased'
p3717
g3
((lp3718
g8
atRp3719
sS'Testicular atrophy'
p3720
g3
((lp3721
g179
atRp3722
sS'Nephropathy toxic'
p3723
g3
((lp3724
g205
ag206
ag15
ag613
atRp3725
sS'Eye pain'
p3726
g3
((lp3727
g8
ag64
atRp3728
sS'Injection site inflammation'
p3729
g3
((lp3730
g8
atRp3731
sS'Laryngeal pain'
p3732
g3
((lp3733
g20
ag60
ag27
atRp3734
sS'Hypovolaemia'
p3735
g3
((lp3736
g89
atRp3737
sS'Pericarditis'
p3738
g3
((lp3739
g47
ag57
ag8
ag158
atRp3740
sS'Azoospermia'
p3741
g3
((lp3742
g179
ag485
atRp3743
sS'Alopecia'
p3744
g3
((lp3745
g70
ag33
ag109
ag134
ag303
ag47
ag608
ag75
ag487
ag22
ag116
ag119
ag77
ag62
ag63
ag24
ag20
ag21
ag6
ag124
ag381
ag23
ag74
ag26
ag27
atRp3746
sS'Colitis microscopic'
p3747
g3
((lp3748
g25
ag462
ag124
atRp3749
sS'Emprosthotonus'
p3750
g3
((lp3751
g19
ag60
ag147
ag103
ag59
ag64
ag24
atRp3752
sS'Arthritis'
p3753
g3
((lp3754
g20
ag58
ag21
ag6
ag124
ag23
ag22
ag47
ag25
ag26
ag27
atRp3755
sS'Flatulence'
p3756
g3
((lp3757
g20
ag15
ag6
ag111
ag223
ag119
ag23
ag22
ag107
ag236
ag26
ag27
ag109
atRp3758
sS'Oral candidiasis'
p3759
g3
((lp3760
g47
ag90
ag242
atRp3761
sS'Peripheral sensory neuropathy'
p3762
g3
((lp3763
g134
ag73
atRp3764
sS'Fatigue'
p3765
g3
((lp3766
g147
ag103
ag33
ag58
ag134
ag112
ag108
ag47
ag22
ag116
ag118
ag223
ag119
ag77
ag403
ag62
ag65
ag63
ag64
ag82
ag24
ag20
ag21
ag6
ag124
ag23
ag26
ag27
atRp3767
sS'Enterocolitis infectious'
p3768
g3
((lp3769
g513
ag514
ag515
ag516
ag517
ag518
ag519
atRp3770
sS'Hypoalbuminaemia'
p3771
g3
((lp3772
g281
ag57
ag287
ag286
ag240
ag290
ag292
ag23
ag282
ag46
ag44
atRp3773
sS'Neuroleptic malignant syndrome'
p3774
g3
((lp3775
g81
ag145
ag103
ag146
ag105
ag33
ag34
ag35
ag19
ag60
ag58
ag59
ag110
ag211
ag112
ag108
ag22
ag114
ag115
ag147
ag117
ag118
ag148
ag113
ag120
ag121
ag403
ag62
ag65
ag63
ag64
ag82
ag123
ag24
ag32
ag21
ag23
ag149
atRp3776
sS'Spinal compression fracture'
p3777
g3
((lp3778
g552
ag316
ag52
ag23
ag53
atRp3779
sS'Lymphoma'
p3780
g3
((lp3781
g547
ag548
atRp3782
sS'Intestinal perforation'
p3783
g3
((lp3784
g240
ag8
ag119
ag241
ag74
ag109
ag618
atRp3785
sS'Blood prolactin increased'
p3786
g3
((lp3787
g81
ag145
ag103
ag146
ag19
ag60
ag113
ag59
ag110
ag112
ag108
ag22
ag115
ag147
ag845
ag117
ag118
ag148
ag120
ag121
ag62
ag65
ag63
ag64
ag82
ag123
ag24
ag20
ag23
ag48
ag26
ag27
atRp3788
sS'Tachypnoea'
p3789
g3
((lp3790
g967
ag903
ag902
atRp3791
sS'Gingivitis'
p3792
g3
((lp3793
g20
ag90
ag21
ag6
ag23
ag22
ag32
ag26
ag27
atRp3794
sS'Blister'
p3795
g3
((lp3796
g20
ag2009
ag32
ag6
ag124
ag385
ag22
ag26
ag27
atRp3797
sS'Cardiac valve disease'
p3798
g3
((lp3799
g19
ag60
ag113
ag103
ag59
ag110
ag146
ag147
ag403
ag62
ag65
ag63
ag64
ag24
atRp3800
sS'Pericardial effusion'
p3801
g3
((lp3802
g281
ag57
ag90
ag46
ag77
ag47
ag241
ag44
ag282
atRp3803
sS'Vaginal infection'
p3804
g3
((lp3805
g25
ag306
ag27
atRp3806
sS'Feeling abnormal'
p3807
g3
((lp3808
g81
ag145
ag70
ag389
ag58
ag8
ag385
ag47
ag22
ag117
ag118
ag223
ag119
ag403
ag62
ag65
ag63
ag64
ag24
ag20
ag32
ag21
ag6
ag124
ag23
ag48
ag26
ag27
atRp3809
sS'Staphylococcal bacteraemia'
p3810
g3
((lp3811
g353
atRp3812
sS'Candida infection'
p3813
g3
((lp3814
g47
ag25
ag8
atRp3815
sS'Pelvic venous thrombosis'
p3816
g3
((lp3817
g305
ag306
atRp3818
sS'Cerebral haemorrhage'
p3819
g3
((lp3820
g20
ag44
ag21
ag46
ag6
ag47
ag26
ag27
atRp3821
sS'Ventricular arrhythmia'
p3822
g3
((lp3823
g903
ag35
ag104
ag968
ag902
ag19
ag58
ag59
ag110
ag8
ag108
ag22
ag115
ag113
ag120
ag1559
ag121
ag62
ag123
ag20
ag227
ag189
atRp3824
sS'Peripheral motor neuropathy'
p3825
g3
((lp3826
g134
ag489
ag69
ag77
atRp3827
sS'Lipase increased'
p3828
g3
((lp3829
g286
ag287
ag46
ag292
ag290
atRp3830
sS'Malnutrition'
p3831
g3
((lp3832
g20
ag134
ag6
ag23
ag22
ag47
ag26
ag27
atRp3833
sS'Blepharospasm'
p3834
g3
((lp3835
g19
ag60
ag147
ag103
ag59
ag110
ag146
ag120
ag22
ag62
ag65
ag63
ag64
ag82
ag24
atRp3836
sS'Osteomyelitis'
p3837
g3
((lp3838
g138
atRp3839
sS'Electrocardiogram T wave inversion'
p3840
g3
((lp3841
g147
ag146
ag103
ag12
ag19
ag60
ag59
ag7
ag10
ag22
ag115
ag148
ag120
ag62
ag63
ag64
ag123
ag24
ag11
ag9
ag13
ag26
atRp3842
sS'Cytomegalovirus infection'
p3843
g3
((lp3844
g547
aS'11254'
p3845
ag548
atRp3846
sS'Back injury'
p3847
g3
((lp3848
g33
ag34
ag35
atRp3849
sS'Crystalluria'
p3850
g3
((lp3851
g8
atRp3852
sS'Amylase increased'
p3853
g3
((lp3854
g44
ag46
atRp3855
sS'Skin atrophy'
p3856
g3
((lp3857
g552
ag52
ag2514
ag53
atRp3858
sS'Rash pustular'
p3859
g3
((lp3860
g463
ag89
atRp3861
sS'Dyspareunia'
p3862
g3
((lp3863
g381
ag306
atRp3864
sS'Haemorrhoids'
p3865
g3
((lp3866
g27
atRp3867
sS'Aspartate aminotransferase increased'
p3868
g3
((lp3869
g20
ag44
ag21
ag46
ag6
ag23
ag22
ag47
ag26
ag27
atRp3870
sS'Painful erection'
p3871
g3
((lp3872
g34
ag35
atRp3873
sS'Hypomania'
p3874
g3
((lp3875
g81
ag145
ag103
ag543
ag146
ag313
ag314
ag105
ag33
ag34
ag35
ag113
ag110
ag112
ag108
ag22
ag114
ag115
ag116
ag117
ag118
ag148
ag1167
ag62
ag120
ag64
ag82
ag123
ag24
ag32
ag63
atRp3876
sS'Blepharitis'
p3877
g3
((lp3878
g19
ag60
ag113
ag103
ag59
ag146
ag123
ag148
ag147
ag22
ag112
ag108
ag47
ag121
ag62
ag64
ag20
ag26
ag24
atRp3879
sS'Urticaria'
p3880
g3
((lp3881
g20
ag58
ag5
ag21
ag116
ag6
ag124
ag316
ag23
ag22
ag125
ag107
ag74
ag219
ag26
ag27
ag15
atRp3882
sS'Muscle contractions involuntary'
p3883
g3
((lp3884
g19
ag21
ag563
ag22
ag2651
ag27
ag62
ag65
ag64
ag628
atRp3885
sS'Palpitations'
p3886
g3
((lp3887
g81
ag145
ag45
ag103
ag94
ag125
ag33
ag34
ag35
ag58
ag539
ag177
ag114
ag227
ag317
ag115
ag315
ag117
ag118
ag148
ag120
ag65
ag63
ag64
ag82
ag322
ag24
ag20
ag324
ag21
ag325
ag6
ag23
ag22
ag26
ag27
atRp3888
sS'Withdrawal syndrome'
p3889
g3
((lp3890
g413
ag22
ag23
ag297
ag33
ag34
ag178
ag296
ag27
atRp3891
sS'Hyperpyrexia'
p3892
g3
((lp3893
g81
ag145
ag58
ag59
ag112
ag117
ag118
ag148
ag110
ag113
ag120
ag22
ag105
ag60
ag115
ag62
ag63
ag149
ag14
ag24
ag19
atRp3894
sS'Encephalopathy'
p3895
g3
((lp3896
g15
ag2904
atRp3897
sS'Ocular toxicity'
p3898
g3
((lp3899
g47
ag608
ag616
atRp3900
sS'Varicose vein'
p3901
g3
((lp3902
g306
atRp3903
sS'Gallbladder disorder'
p3904
g3
((lp3905
g655
ag316
ag306
ag305
ag236
atRp3906
sS'Alcohol abuse'
p3907
g3
((lp3908
g296
ag297
ag178
atRp3909
sS'Diabetes insipidus'
p3910
g3
((lp3911
g48
atRp3912
sS'Depressed level of consciousness'
p3913
g3
((lp3914
g389
ag218
ag1093
ag390
ag391
ag392
ag393
ag413
ag395
ag396
ag397
ag398
ag399
ag400
ag178
ag64
ag404
ag405
ag20
ag32
ag407
ag408
ag409
ag394
ag410
ag411
ag412
ag48
ag26
ag27
atRp3915
s.